ARM GAS  C:\Users\Simon\AppData\Local\Temp\ccWaoNZX.s 			page 1


   1              		.syntax unified
   2              		.cpu cortex-m3
   3              		.fpu softvfp
   4              		.eabi_attribute 20, 1
   5              		.eabi_attribute 21, 1
   6              		.eabi_attribute 23, 3
   7              		.eabi_attribute 24, 1
   8              		.eabi_attribute 25, 1
   9              		.eabi_attribute 26, 1
  10              		.eabi_attribute 30, 1
  11              		.eabi_attribute 34, 1
  12              		.eabi_attribute 18, 4
  13              		.thumb
  14              		.syntax unified
  15              		.file	"LedControl.c"
  16              		.text
  17              	.Ltext0:
  18              		.cfi_sections	.debug_frame
  19              		.section	.text.PWM_ISR_handler,"ax",%progbits
  20              		.align	2
  21              		.global	PWM_ISR_handler
  22              		.thumb
  23              		.thumb_func
  24              		.type	PWM_ISR_handler, %function
  25              	PWM_ISR_handler:
  26              	.LFB64:
  27              		.file 1 "LedControl.c"
   1:LedControl.c  **** #include "LedControl.h"   
   2:LedControl.c  **** 
   3:LedControl.c  **** 
   4:LedControl.c  **** uint8_t whiteSquareArray[64] = {
   5:LedControl.c  ****         0, 1, 0, 1, 0, 1, 0, 1,
   6:LedControl.c  ****         1, 0, 1, 0, 1, 0, 1, 0,
   7:LedControl.c  ****         0, 1, 0, 1, 0, 1, 0, 1,
   8:LedControl.c  ****         1, 0, 1, 0, 1, 0, 1, 0,
   9:LedControl.c  ****         0, 1, 0, 1, 0, 1, 0, 1,
  10:LedControl.c  ****         1, 0, 1, 0, 1, 0, 1, 0,
  11:LedControl.c  ****         0, 1, 0, 1, 0, 1, 0, 1,
  12:LedControl.c  ****         1, 0, 1, 0, 1, 0, 1, 0};
  13:LedControl.c  ****  
  14:LedControl.c  **** 
  15:LedControl.c  **** /*
  16:LedControl.c  **** Gå under fanen "Clocks" <--. Dobbeltklik "PLL_Out"
  17:LedControl.c  **** Sæt "Desired" under PLL_OUT til 70 Mhz
  18:LedControl.c  **** Sæt Master clock til at modtage "PLL_OUT(70 mHz)"
  19:LedControl.c  **** Indstil Divider til 1
  20:LedControl.c  **** */
  21:LedControl.c  **** 
  22:LedControl.c  **** 
  23:LedControl.c  ****     /*     Array:
  24:LedControl.c  **** 
  25:LedControl.c  ****                   Byte1 Byte2 Byte3               
  26:LedControl.c  **** 
  27:LedControl.c  ****         Led 1    [[Grøn][Rød][Blå]]
  28:LedControl.c  ****         Led 2    [[Grøn][Rød][Blå]]
  29:LedControl.c  ****         ...      [...             ]
  30:LedControl.c  ****         Led 64   [[Grøn][Rød][Blå]]
ARM GAS  C:\Users\Simon\AppData\Local\Temp\ccWaoNZX.s 			page 2


  31:LedControl.c  ****     */
  32:LedControl.c  **** 
  33:LedControl.c  **** CY_ISR(PWM_ISR_handler)
  34:LedControl.c  **** {
  28              		.loc 1 34 0
  29              		.cfi_startproc
  30              		@ args = 0, pretend = 0, frame = 0
  31              		@ frame_needed = 0, uses_anonymous_args = 0
  32 0000 08B5     		push	{r3, lr}
  33              		.cfi_def_cfa_offset 8
  34              		.cfi_offset 3, -8
  35              		.cfi_offset 14, -4
  35:LedControl.c  ****     if (ledData[byteIndex] & (1 << bitIndex) && bitIndex >= 0)
  36              		.loc 1 35 0
  37 0002 104B     		ldr	r3, .L5
  38 0004 1B88     		ldrh	r3, [r3]
  39 0006 104A     		ldr	r2, .L5+4
  40 0008 D35C     		ldrb	r3, [r2, r3]	@ zero_extendqisi2
  41 000a 104A     		ldr	r2, .L5+8
  42 000c 92F90020 		ldrsb	r2, [r2]
  43 0010 1341     		asrs	r3, r3, r2
  44 0012 13F0010F 		tst	r3, #1
  45 0016 08D0     		beq	.L2
  46              		.loc 1 35 0 is_stmt 0 discriminator 1
  47 0018 002A     		cmp	r2, #0
  48 001a 06DB     		blt	.L2
  36:LedControl.c  ****     {
  37:LedControl.c  ****         PWM_WriteCompare(T_HIGH);
  49              		.loc 1 37 0 is_stmt 1
  50 001c 2820     		movs	r0, #40
  51 001e FFF7FEFF 		bl	PWM_WriteCompare
  52              	.LVL0:
  38:LedControl.c  ****         Control_Reg_1_Write(1);
  53              		.loc 1 38 0
  54 0022 0120     		movs	r0, #1
  55 0024 FFF7FEFF 		bl	Control_Reg_1_Write
  56              	.LVL1:
  57 0028 05E0     		b	.L3
  58              	.L2:
  39:LedControl.c  ****     }
  40:LedControl.c  ****     else
  41:LedControl.c  ****     {
  42:LedControl.c  ****         PWM_WriteCompare(T_LOW);
  59              		.loc 1 42 0
  60 002a 5A20     		movs	r0, #90
  61 002c FFF7FEFF 		bl	PWM_WriteCompare
  62              	.LVL2:
  43:LedControl.c  ****         Control_Reg_1_Write(1);
  63              		.loc 1 43 0
  64 0030 0120     		movs	r0, #1
  65 0032 FFF7FEFF 		bl	Control_Reg_1_Write
  66              	.LVL3:
  67              	.L3:
  44:LedControl.c  ****     }
  45:LedControl.c  **** 
  46:LedControl.c  ****     bitIndex--;
  68              		.loc 1 46 0
ARM GAS  C:\Users\Simon\AppData\Local\Temp\ccWaoNZX.s 			page 3


  69 0036 054A     		ldr	r2, .L5+8
  70 0038 1378     		ldrb	r3, [r2]	@ zero_extendqisi2
  71 003a 013B     		subs	r3, r3, #1
  72 003c 1370     		strb	r3, [r2]
  47:LedControl.c  **** 
  48:LedControl.c  ****     PWM_ReadStatusRegister();
  73              		.loc 1 48 0
  74 003e FFF7FEFF 		bl	PWM_ReadStatusRegister
  75              	.LVL4:
  76 0042 08BD     		pop	{r3, pc}
  77              	.L6:
  78              		.align	2
  79              	.L5:
  80 0044 00000000 		.word	byteIndex
  81 0048 00000000 		.word	ledData
  82 004c 00000000 		.word	bitIndex
  83              		.cfi_endproc
  84              	.LFE64:
  85              		.size	PWM_ISR_handler, .-PWM_ISR_handler
  86              		.section	.text.pwmLedInterrupt,"ax",%progbits
  87              		.align	2
  88              		.global	pwmLedInterrupt
  89              		.thumb
  90              		.thumb_func
  91              		.type	pwmLedInterrupt, %function
  92              	pwmLedInterrupt:
  93              	.LFB66:
  49:LedControl.c  **** }
  50:LedControl.c  **** 
  51:LedControl.c  **** void setLEDs(uint8_t array[SIZE])
  52:LedControl.c  **** {
  53:LedControl.c  ****     end = 1;
  54:LedControl.c  ****     for(int i = 0; i < NUM_LEDS; i++)
  55:LedControl.c  ****     {
  56:LedControl.c  ****         ledArray[i] = array[i];
  57:LedControl.c  ****     }
  58:LedControl.c  ****     
  59:LedControl.c  ****     // Lav en forløkke der løber igennem. HUSK at det der modtages er fra RPI legalMoves.
  60:LedControl.c  ****     // i array[i]. Hvis gældene plads skal tændes(er et 1'tal), 
  61:LedControl.c  ****     // køres der nogle if-statement, der styrer hvilken farve led'erne har.
  62:LedControl.c  ****     
  63:LedControl.c  ****     sensorScan(); // Opdaterer squareReg[]
  64:LedControl.c  ****     
  65:LedControl.c  ****     for (uint8_t i = 0; i < 64; i++) // Opdaterer ledData[SIZE*3] med de rigtige farver på led'ern
  66:LedControl.c  ****     {   
  67:LedControl.c  ****         if(whiteSquareArray[i]==1) //Hvis hvidt felt
  68:LedControl.c  ****         {
  69:LedControl.c  ****             if(ledArray[i] == 1 && ledArray[i] == squareReg[i]) //
  70:LedControl.c  ****             {    
  71:LedControl.c  ****                 //Vælg Farve//
  72:LedControl.c  ****                 ledData[i * 3]     = 0;       //Grøn
  73:LedControl.c  ****                 ledData[i * 3 + 1] = WHITE_LED_INTESITY;     //Rød
  74:LedControl.c  ****                 ledData[i * 3 + 2] = 0;     //Blå
  75:LedControl.c  ****             }
  76:LedControl.c  ****             if(ledArray[i] == 1 && ledArray[i] != squareReg[i])
  77:LedControl.c  ****             {
  78:LedControl.c  ****                 //Vælg Farve//
ARM GAS  C:\Users\Simon\AppData\Local\Temp\ccWaoNZX.s 			page 4


  79:LedControl.c  ****                 ledData[i * 3]     = 0;       //Grøn
  80:LedControl.c  ****                 ledData[i * 3 + 1] = 0;       //Rød
  81:LedControl.c  ****                 ledData[i * 3 + 2] = WHITE_LED_INTESITY;     //Blå
  82:LedControl.c  ****             }
  83:LedControl.c  ****             if(ledArray[i] == 0)
  84:LedControl.c  ****             {
  85:LedControl.c  ****                 //Vælg Farve//
  86:LedControl.c  ****                 ledData[i * 3]     = 0;       //Grøn
  87:LedControl.c  ****                 ledData[i * 3 + 1] = 0;       //Rød   // Sluk
  88:LedControl.c  ****                 ledData[i * 3 + 2] = 0;       //Blå
  89:LedControl.c  ****             }
  90:LedControl.c  ****         }
  91:LedControl.c  ****         else // Hvis sort felt
  92:LedControl.c  ****         {
  93:LedControl.c  ****             if(ledArray[i] == 1 && ledArray[i] == squareReg[i]) //
  94:LedControl.c  ****             {    
  95:LedControl.c  ****                 //Vælg Farve//
  96:LedControl.c  ****                 ledData[i * 3]     = 0;       //Grøn
  97:LedControl.c  ****                 ledData[i * 3 + 1] = BLACK_LED_INTESITY;     //Rød
  98:LedControl.c  ****                 ledData[i * 3 + 2] = 0;     //Blå
  99:LedControl.c  ****             }
 100:LedControl.c  ****             if(ledArray[i] == 1 && ledArray[i] != squareReg[i])
 101:LedControl.c  ****             {
 102:LedControl.c  ****                 //Vælg Farve//
 103:LedControl.c  ****                 ledData[i * 3]     = 0;       //Grøn
 104:LedControl.c  ****                 ledData[i * 3 + 1] = 0;       //Rød
 105:LedControl.c  ****                 ledData[i * 3 + 2] = BLACK_LED_INTESITY;     //Blå
 106:LedControl.c  ****             }
 107:LedControl.c  ****             if(ledArray[i] == 0)
 108:LedControl.c  ****             {
 109:LedControl.c  ****                 //Vælg Farve//
 110:LedControl.c  ****                 ledData[i * 3]     = 0;       //Grøn
 111:LedControl.c  ****                 ledData[i * 3 + 1] = 0;       //Rød   // Sluk
 112:LedControl.c  ****                 ledData[i * 3 + 2] = 0;       //Blå
 113:LedControl.c  ****             }
 114:LedControl.c  ****         }
 115:LedControl.c  ****     }  
 116:LedControl.c  **** 
 117:LedControl.c  ****     pwmLedInterrupt();
 118:LedControl.c  **** }
 119:LedControl.c  **** 
 120:LedControl.c  **** void pwmLedInterrupt()
 121:LedControl.c  **** {
  94              		.loc 1 121 0
  95              		.cfi_startproc
  96              		@ args = 0, pretend = 0, frame = 0
  97              		@ frame_needed = 0, uses_anonymous_args = 0
  98 0000 08B5     		push	{r3, lr}
  99              		.cfi_def_cfa_offset 8
 100              		.cfi_offset 3, -8
 101              		.cfi_offset 14, -4
 122:LedControl.c  ****     PWM_Start();
 102              		.loc 1 122 0
 103 0002 FFF7FEFF 		bl	PWM_Start
 104              	.LVL5:
 123:LedControl.c  ****     Control_Reg_1_Write(1);
 105              		.loc 1 123 0
ARM GAS  C:\Users\Simon\AppData\Local\Temp\ccWaoNZX.s 			page 5


 106 0006 0120     		movs	r0, #1
 107 0008 FFF7FEFF 		bl	Control_Reg_1_Write
 108              	.LVL6:
 124:LedControl.c  **** 
 125:LedControl.c  ****     // Vent indtil alle bits er sendt
 126:LedControl.c  ****     while(end)
 109              		.loc 1 126 0
 110 000c 15E0     		b	.L9
 111              	.L11:
 127:LedControl.c  ****     {
 128:LedControl.c  ****         // Tjek om vi har sendt alle 24 bits
 129:LedControl.c  ****         if (bitIndex < 0)
 112              		.loc 1 129 0
 113 000e 0D4B     		ldr	r3, .L13
 114 0010 93F90030 		ldrsb	r3, [r3]
 115 0014 002B     		cmp	r3, #0
 116 0016 10DA     		bge	.L9
 130:LedControl.c  ****         {
 131:LedControl.c  ****             bitIndex = 7;
 117              		.loc 1 131 0
 118 0018 0722     		movs	r2, #7
 119 001a 0A4B     		ldr	r3, .L13
 120 001c 1A70     		strb	r2, [r3]
 132:LedControl.c  ****             byteIndex++;
 121              		.loc 1 132 0
 122 001e 0A4A     		ldr	r2, .L13+4
 123 0020 1388     		ldrh	r3, [r2]
 124 0022 0133     		adds	r3, r3, #1
 125 0024 9BB2     		uxth	r3, r3
 126 0026 1380     		strh	r3, [r2]	@ movhi
 133:LedControl.c  ****             if(byteIndex >= (NUM_LEDS * 3))
 127              		.loc 1 133 0
 128 0028 BF2B     		cmp	r3, #191
 129 002a 06D9     		bls	.L9
 134:LedControl.c  ****             {
 135:LedControl.c  ****                 // Alle bits er blevet sendt, stop PWM
 136:LedControl.c  ****                 PWM_Stop();
 130              		.loc 1 136 0
 131 002c FFF7FEFF 		bl	PWM_Stop
 132              	.LVL7:
 137:LedControl.c  ****                 byteIndex = 0;
 133              		.loc 1 137 0
 134 0030 0023     		movs	r3, #0
 135 0032 054A     		ldr	r2, .L13+4
 136 0034 1380     		strh	r3, [r2]	@ movhi
 138:LedControl.c  ****                 end = 0;
 137              		.loc 1 138 0
 138 0036 054A     		ldr	r2, .L13+8
 139 0038 1360     		str	r3, [r2]
 140              	.L9:
 126:LedControl.c  ****     {
 141              		.loc 1 126 0
 142 003a 044B     		ldr	r3, .L13+8
 143 003c 1B68     		ldr	r3, [r3]
 144 003e 002B     		cmp	r3, #0
 145 0040 E5D1     		bne	.L11
 139:LedControl.c  ****             }
ARM GAS  C:\Users\Simon\AppData\Local\Temp\ccWaoNZX.s 			page 6


 140:LedControl.c  ****         }
 141:LedControl.c  ****     }
 142:LedControl.c  **** }
 146              		.loc 1 142 0
 147 0042 08BD     		pop	{r3, pc}
 148              	.L14:
 149              		.align	2
 150              	.L13:
 151 0044 00000000 		.word	bitIndex
 152 0048 00000000 		.word	byteIndex
 153 004c 00000000 		.word	end
 154              		.cfi_endproc
 155              	.LFE66:
 156              		.size	pwmLedInterrupt, .-pwmLedInterrupt
 157              		.section	.text.setLEDs,"ax",%progbits
 158              		.align	2
 159              		.global	setLEDs
 160              		.thumb
 161              		.thumb_func
 162              		.type	setLEDs, %function
 163              	setLEDs:
 164              	.LFB65:
  52:LedControl.c  ****     end = 1;
 165              		.loc 1 52 0
 166              		.cfi_startproc
 167              		@ args = 0, pretend = 0, frame = 0
 168              		@ frame_needed = 0, uses_anonymous_args = 0
 169              	.LVL8:
 170 0000 F8B5     		push	{r3, r4, r5, r6, r7, lr}
 171              		.cfi_def_cfa_offset 24
 172              		.cfi_offset 3, -24
 173              		.cfi_offset 4, -20
 174              		.cfi_offset 5, -16
 175              		.cfi_offset 6, -12
 176              		.cfi_offset 7, -8
 177              		.cfi_offset 14, -4
  53:LedControl.c  ****     for(int i = 0; i < NUM_LEDS; i++)
 178              		.loc 1 53 0
 179 0002 0122     		movs	r2, #1
 180 0004 394B     		ldr	r3, .L27
 181 0006 1A60     		str	r2, [r3]
 182              	.LVL9:
 183              	.LBB2:
  54:LedControl.c  ****     {
 184              		.loc 1 54 0
 185 0008 0023     		movs	r3, #0
 186 000a 03E0     		b	.L16
 187              	.LVL10:
 188              	.L17:
  56:LedControl.c  ****     }
 189              		.loc 1 56 0 discriminator 3
 190 000c C15C     		ldrb	r1, [r0, r3]	@ zero_extendqisi2
 191 000e 384A     		ldr	r2, .L27+4
 192 0010 D154     		strb	r1, [r2, r3]
  54:LedControl.c  ****     {
 193              		.loc 1 54 0 discriminator 3
 194 0012 0133     		adds	r3, r3, #1
ARM GAS  C:\Users\Simon\AppData\Local\Temp\ccWaoNZX.s 			page 7


 195              	.LVL11:
 196              	.L16:
  54:LedControl.c  ****     {
 197              		.loc 1 54 0 is_stmt 0 discriminator 1
 198 0014 3F2B     		cmp	r3, #63
 199 0016 F9DD     		ble	.L17
 200              	.LBE2:
  63:LedControl.c  ****     
 201              		.loc 1 63 0 is_stmt 1
 202 0018 FFF7FEFF 		bl	sensorScan
 203              	.LVL12:
 204              	.LBB3:
  65:LedControl.c  ****     {   
 205              		.loc 1 65 0
 206 001c 0023     		movs	r3, #0
 207 001e 5FE0     		b	.L18
 208              	.LVL13:
 209              	.L25:
  67:LedControl.c  ****         {
 210              		.loc 1 67 0
 211 0020 1A46     		mov	r2, r3
 212 0022 3449     		ldr	r1, .L27+8
 213 0024 C95C     		ldrb	r1, [r1, r3]	@ zero_extendqisi2
 214 0026 0129     		cmp	r1, #1
 215 0028 2CD1     		bne	.L19
  69:LedControl.c  ****             {    
 216              		.loc 1 69 0
 217 002a 3149     		ldr	r1, .L27+4
 218 002c C95C     		ldrb	r1, [r1, r3]	@ zero_extendqisi2
 219 002e 0129     		cmp	r1, #1
 220 0030 0DD1     		bne	.L20
  69:LedControl.c  ****             {    
 221              		.loc 1 69 0 is_stmt 0 discriminator 1
 222 0032 3148     		ldr	r0, .L27+12
 223 0034 C05C     		ldrb	r0, [r0, r3]	@ zero_extendqisi2
 224 0036 8142     		cmp	r1, r0
 225 0038 09D1     		bne	.L20
  72:LedControl.c  ****                 ledData[i * 3 + 1] = WHITE_LED_INTESITY;     //Rød
 226              		.loc 1 72 0 is_stmt 1
 227 003a 03EB4300 		add	r0, r3, r3, lsl #1
 228 003e 2F4C     		ldr	r4, .L27+16
 229 0040 0025     		movs	r5, #0
 230 0042 2554     		strb	r5, [r4, r0]
  73:LedControl.c  ****                 ledData[i * 3 + 2] = 0;     //Blå
 231              		.loc 1 73 0
 232 0044 461C     		adds	r6, r0, #1
 233 0046 1427     		movs	r7, #20
 234 0048 A755     		strb	r7, [r4, r6]
  74:LedControl.c  ****             }
 235              		.loc 1 74 0
 236 004a 0230     		adds	r0, r0, #2
 237 004c 2554     		strb	r5, [r4, r0]
 238              	.L20:
  76:LedControl.c  ****             {
 239              		.loc 1 76 0
 240 004e 0129     		cmp	r1, #1
 241 0050 0DD1     		bne	.L21
ARM GAS  C:\Users\Simon\AppData\Local\Temp\ccWaoNZX.s 			page 8


  76:LedControl.c  ****             {
 242              		.loc 1 76 0 is_stmt 0 discriminator 1
 243 0052 2948     		ldr	r0, .L27+12
 244 0054 805C     		ldrb	r0, [r0, r2]	@ zero_extendqisi2
 245 0056 8142     		cmp	r1, r0
 246 0058 09D0     		beq	.L21
  79:LedControl.c  ****                 ledData[i * 3 + 1] = 0;       //Rød
 247              		.loc 1 79 0 is_stmt 1
 248 005a 02EB4200 		add	r0, r2, r2, lsl #1
 249 005e 274C     		ldr	r4, .L27+16
 250 0060 0025     		movs	r5, #0
 251 0062 2554     		strb	r5, [r4, r0]
  80:LedControl.c  ****                 ledData[i * 3 + 2] = WHITE_LED_INTESITY;     //Blå
 252              		.loc 1 80 0
 253 0064 461C     		adds	r6, r0, #1
 254 0066 A555     		strb	r5, [r4, r6]
  81:LedControl.c  ****             }
 255              		.loc 1 81 0
 256 0068 0230     		adds	r0, r0, #2
 257 006a 1425     		movs	r5, #20
 258 006c 2554     		strb	r5, [r4, r0]
 259              	.L21:
  83:LedControl.c  ****             {
 260              		.loc 1 83 0
 261 006e A9BB     		cbnz	r1, .L22
  86:LedControl.c  ****                 ledData[i * 3 + 1] = 0;       //Rød   // Sluk
 262              		.loc 1 86 0
 263 0070 02EB4202 		add	r2, r2, r2, lsl #1
 264 0074 2149     		ldr	r1, .L27+16
 265 0076 0020     		movs	r0, #0
 266 0078 8854     		strb	r0, [r1, r2]
  87:LedControl.c  ****                 ledData[i * 3 + 2] = 0;       //Blå
 267              		.loc 1 87 0
 268 007a 541C     		adds	r4, r2, #1
 269 007c 0855     		strb	r0, [r1, r4]
  88:LedControl.c  ****             }
 270              		.loc 1 88 0
 271 007e 0232     		adds	r2, r2, #2
 272 0080 8854     		strb	r0, [r1, r2]
 273 0082 2BE0     		b	.L22
 274              	.L19:
  93:LedControl.c  ****             {    
 275              		.loc 1 93 0
 276 0084 1A49     		ldr	r1, .L27+4
 277 0086 C95C     		ldrb	r1, [r1, r3]	@ zero_extendqisi2
 278 0088 0129     		cmp	r1, #1
 279 008a 0DD1     		bne	.L23
  93:LedControl.c  ****             {    
 280              		.loc 1 93 0 is_stmt 0 discriminator 1
 281 008c 1A48     		ldr	r0, .L27+12
 282 008e C05C     		ldrb	r0, [r0, r3]	@ zero_extendqisi2
 283 0090 8142     		cmp	r1, r0
 284 0092 09D1     		bne	.L23
  96:LedControl.c  ****                 ledData[i * 3 + 1] = BLACK_LED_INTESITY;     //Rød
 285              		.loc 1 96 0 is_stmt 1
 286 0094 03EB4300 		add	r0, r3, r3, lsl #1
 287 0098 184C     		ldr	r4, .L27+16
ARM GAS  C:\Users\Simon\AppData\Local\Temp\ccWaoNZX.s 			page 9


 288 009a 0025     		movs	r5, #0
 289 009c 2554     		strb	r5, [r4, r0]
  97:LedControl.c  ****                 ledData[i * 3 + 2] = 0;     //Blå
 290              		.loc 1 97 0
 291 009e 461C     		adds	r6, r0, #1
 292 00a0 FF27     		movs	r7, #255
 293 00a2 A755     		strb	r7, [r4, r6]
  98:LedControl.c  ****             }
 294              		.loc 1 98 0
 295 00a4 0230     		adds	r0, r0, #2
 296 00a6 2554     		strb	r5, [r4, r0]
 297              	.L23:
 100:LedControl.c  ****             {
 298              		.loc 1 100 0
 299 00a8 0129     		cmp	r1, #1
 300 00aa 0DD1     		bne	.L24
 100:LedControl.c  ****             {
 301              		.loc 1 100 0 is_stmt 0 discriminator 1
 302 00ac 1248     		ldr	r0, .L27+12
 303 00ae 805C     		ldrb	r0, [r0, r2]	@ zero_extendqisi2
 304 00b0 8142     		cmp	r1, r0
 305 00b2 09D0     		beq	.L24
 103:LedControl.c  ****                 ledData[i * 3 + 1] = 0;       //Rød
 306              		.loc 1 103 0 is_stmt 1
 307 00b4 02EB4200 		add	r0, r2, r2, lsl #1
 308 00b8 104C     		ldr	r4, .L27+16
 309 00ba 0025     		movs	r5, #0
 310 00bc 2554     		strb	r5, [r4, r0]
 104:LedControl.c  ****                 ledData[i * 3 + 2] = BLACK_LED_INTESITY;     //Blå
 311              		.loc 1 104 0
 312 00be 461C     		adds	r6, r0, #1
 313 00c0 A555     		strb	r5, [r4, r6]
 105:LedControl.c  ****             }
 314              		.loc 1 105 0
 315 00c2 0230     		adds	r0, r0, #2
 316 00c4 FF25     		movs	r5, #255
 317 00c6 2554     		strb	r5, [r4, r0]
 318              	.L24:
 107:LedControl.c  ****             {
 319              		.loc 1 107 0
 320 00c8 41B9     		cbnz	r1, .L22
 110:LedControl.c  ****                 ledData[i * 3 + 1] = 0;       //Rød   // Sluk
 321              		.loc 1 110 0
 322 00ca 02EB4202 		add	r2, r2, r2, lsl #1
 323 00ce 0B49     		ldr	r1, .L27+16
 324 00d0 0020     		movs	r0, #0
 325 00d2 8854     		strb	r0, [r1, r2]
 111:LedControl.c  ****                 ledData[i * 3 + 2] = 0;       //Blå
 326              		.loc 1 111 0
 327 00d4 541C     		adds	r4, r2, #1
 328 00d6 0855     		strb	r0, [r1, r4]
 112:LedControl.c  ****             }
 329              		.loc 1 112 0
 330 00d8 0232     		adds	r2, r2, #2
 331 00da 8854     		strb	r0, [r1, r2]
 332              	.L22:
  65:LedControl.c  ****     {   
ARM GAS  C:\Users\Simon\AppData\Local\Temp\ccWaoNZX.s 			page 10


 333              		.loc 1 65 0 discriminator 2
 334 00dc 0133     		adds	r3, r3, #1
 335              	.LVL14:
 336 00de DBB2     		uxtb	r3, r3
 337              	.LVL15:
 338              	.L18:
  65:LedControl.c  ****     {   
 339              		.loc 1 65 0 is_stmt 0 discriminator 1
 340 00e0 3F2B     		cmp	r3, #63
 341 00e2 9DD9     		bls	.L25
 342              	.LBE3:
 117:LedControl.c  **** }
 343              		.loc 1 117 0 is_stmt 1
 344 00e4 FFF7FEFF 		bl	pwmLedInterrupt
 345              	.LVL16:
 346 00e8 F8BD     		pop	{r3, r4, r5, r6, r7, pc}
 347              	.L28:
 348 00ea 00BF     		.align	2
 349              	.L27:
 350 00ec 00000000 		.word	end
 351 00f0 00000000 		.word	ledArray
 352 00f4 00000000 		.word	.LANCHOR0
 353 00f8 00000000 		.word	squareReg
 354 00fc 00000000 		.word	ledData
 355              		.cfi_endproc
 356              	.LFE65:
 357              		.size	setLEDs, .-setLEDs
 358              		.section	.text.onlyDeadPosLED,"ax",%progbits
 359              		.align	2
 360              		.global	onlyDeadPosLED
 361              		.thumb
 362              		.thumb_func
 363              		.type	onlyDeadPosLED, %function
 364              	onlyDeadPosLED:
 365              	.LFB67:
 143:LedControl.c  **** 
 144:LedControl.c  **** void onlyDeadPosLED(int ledNr)
 145:LedControl.c  **** {
 366              		.loc 1 145 0
 367              		.cfi_startproc
 368              		@ args = 0, pretend = 0, frame = 0
 369              		@ frame_needed = 0, uses_anonymous_args = 0
 370              	.LVL17:
 371 0000 70B5     		push	{r4, r5, r6, lr}
 372              		.cfi_def_cfa_offset 16
 373              		.cfi_offset 4, -16
 374              		.cfi_offset 5, -12
 375              		.cfi_offset 6, -8
 376              		.cfi_offset 14, -4
 146:LedControl.c  ****     end = 1;
 377              		.loc 1 146 0
 378 0002 0122     		movs	r2, #1
 379 0004 0E4B     		ldr	r3, .L34
 380 0006 1A60     		str	r2, [r3]
 381              	.LVL18:
 382              	.LBB4:
 147:LedControl.c  ****     for (uint8_t i = 0; i < 64; i++)
ARM GAS  C:\Users\Simon\AppData\Local\Temp\ccWaoNZX.s 			page 11


 383              		.loc 1 147 0
 384 0008 0023     		movs	r3, #0
 385 000a 14E0     		b	.L30
 386              	.LVL19:
 387              	.L32:
 148:LedControl.c  ****     {
 149:LedControl.c  ****         ledData[i * 3]     = 0;          //Grøn
 388              		.loc 1 149 0
 389 000c 03EB4302 		add	r2, r3, r3, lsl #1
 390 0010 0C49     		ldr	r1, .L34+4
 391 0012 0024     		movs	r4, #0
 392 0014 8C54     		strb	r4, [r1, r2]
 150:LedControl.c  ****         ledData[i * 3 + 1] = 0;          //Rød  
 393              		.loc 1 150 0
 394 0016 551C     		adds	r5, r2, #1
 395 0018 4C55     		strb	r4, [r1, r5]
 151:LedControl.c  ****         ledData[i * 3 + 2] = 0;          //Blå
 396              		.loc 1 151 0
 397 001a 0232     		adds	r2, r2, #2
 398 001c 8C54     		strb	r4, [r1, r2]
 152:LedControl.c  ****         if(i == ledNr)
 399              		.loc 1 152 0
 400 001e 8342     		cmp	r3, r0
 401 0020 07D1     		bne	.L31
 153:LedControl.c  ****         {
 154:LedControl.c  ****             ledData[ledNr * 3]     = 0;      //Grøn
 402              		.loc 1 154 0
 403 0022 00EB4002 		add	r2, r0, r0, lsl #1
 404 0026 8C54     		strb	r4, [r1, r2]
 155:LedControl.c  ****             ledData[ledNr * 3 + 1] = WHITE_LED_INTESITY;                 //Rød  
 405              		.loc 1 155 0
 406 0028 551C     		adds	r5, r2, #1
 407 002a 1426     		movs	r6, #20
 408 002c 4E55     		strb	r6, [r1, r5]
 156:LedControl.c  ****             ledData[ledNr * 3 + 2] = 0;                 //Blå
 409              		.loc 1 156 0
 410 002e 0232     		adds	r2, r2, #2
 411 0030 8C54     		strb	r4, [r1, r2]
 412              	.L31:
 147:LedControl.c  ****     {
 413              		.loc 1 147 0 discriminator 2
 414 0032 0133     		adds	r3, r3, #1
 415              	.LVL20:
 416 0034 DBB2     		uxtb	r3, r3
 417              	.LVL21:
 418              	.L30:
 147:LedControl.c  ****     {
 419              		.loc 1 147 0 is_stmt 0 discriminator 1
 420 0036 3F2B     		cmp	r3, #63
 421 0038 E8D9     		bls	.L32
 422              	.LBE4:
 157:LedControl.c  ****         }
 158:LedControl.c  ****     }
 159:LedControl.c  ****     
 160:LedControl.c  ****     pwmLedInterrupt();
 423              		.loc 1 160 0 is_stmt 1
 424 003a FFF7FEFF 		bl	pwmLedInterrupt
ARM GAS  C:\Users\Simon\AppData\Local\Temp\ccWaoNZX.s 			page 12


 425              	.LVL22:
 426 003e 70BD     		pop	{r4, r5, r6, pc}
 427              	.L35:
 428              		.align	2
 429              	.L34:
 430 0040 00000000 		.word	end
 431 0044 00000000 		.word	ledData
 432              		.cfi_endproc
 433              	.LFE67:
 434              		.size	onlyDeadPosLED, .-onlyDeadPosLED
 435              		.section	.text.turnOffLEDs,"ax",%progbits
 436              		.align	2
 437              		.global	turnOffLEDs
 438              		.thumb
 439              		.thumb_func
 440              		.type	turnOffLEDs, %function
 441              	turnOffLEDs:
 442              	.LFB70:
 161:LedControl.c  **** }
 162:LedControl.c  **** 
 163:LedControl.c  **** void moveAcceptedLED(int ledNr)
 164:LedControl.c  **** {   
 165:LedControl.c  ****     end = 1;
 166:LedControl.c  ****     for (uint8_t i = 0; i < 64; i++)
 167:LedControl.c  ****     {
 168:LedControl.c  ****         ledData[i * 3]     = 0;          //Grøn
 169:LedControl.c  ****         ledData[i * 3 + 1] = 0;          //Rød  
 170:LedControl.c  ****         ledData[i * 3 + 2] = 0;          //Blå
 171:LedControl.c  ****         if(i == ledNr)
 172:LedControl.c  ****         {
 173:LedControl.c  ****             ledData[ledNr * 3]     = WHITE_LED_INTESITY;      //Grøn
 174:LedControl.c  ****             ledData[ledNr * 3 + 1] = 0;                 //Rød  
 175:LedControl.c  ****             ledData[ledNr * 3 + 2] = 0;                 //Blå
 176:LedControl.c  ****         }
 177:LedControl.c  ****     }
 178:LedControl.c  ****     
 179:LedControl.c  ****     pwmLedInterrupt();
 180:LedControl.c  ****     
 181:LedControl.c  ****     CyDelay(2000);
 182:LedControl.c  ****     
 183:LedControl.c  ****     turnOffLEDs();
 184:LedControl.c  **** }
 185:LedControl.c  **** 
 186:LedControl.c  **** void initLED()
 187:LedControl.c  **** {
 188:LedControl.c  ****     isr_PWM_StartEx(PWM_ISR_handler);
 189:LedControl.c  ****     bitIndex = 7;
 190:LedControl.c  ****     byteIndex = 0;
 191:LedControl.c  ****     turnOffLEDs();
 192:LedControl.c  **** }
 193:LedControl.c  **** 
 194:LedControl.c  **** void turnOffLEDs()
 195:LedControl.c  **** {
 443              		.loc 1 195 0
 444              		.cfi_startproc
 445              		@ args = 0, pretend = 0, frame = 64
 446              		@ frame_needed = 0, uses_anonymous_args = 0
ARM GAS  C:\Users\Simon\AppData\Local\Temp\ccWaoNZX.s 			page 13


 447 0000 00B5     		push	{lr}
 448              		.cfi_def_cfa_offset 4
 449              		.cfi_offset 14, -4
 450 0002 91B0     		sub	sp, sp, #68
 451              		.cfi_def_cfa_offset 72
 196:LedControl.c  ****     uint8_t offArray[64] = {0};
 452              		.loc 1 196 0
 453 0004 4022     		movs	r2, #64
 454 0006 0021     		movs	r1, #0
 455 0008 6846     		mov	r0, sp
 456 000a FFF7FEFF 		bl	memset
 457              	.LVL23:
 197:LedControl.c  ****     
 198:LedControl.c  ****     setLEDs(offArray);
 458              		.loc 1 198 0
 459 000e 6846     		mov	r0, sp
 460 0010 FFF7FEFF 		bl	setLEDs
 461              	.LVL24:
 199:LedControl.c  **** }
 462              		.loc 1 199 0
 463 0014 11B0     		add	sp, sp, #68
 464              		.cfi_def_cfa_offset 4
 465              		@ sp needed
 466 0016 5DF804FB 		ldr	pc, [sp], #4
 467              		.cfi_endproc
 468              	.LFE70:
 469              		.size	turnOffLEDs, .-turnOffLEDs
 470 001a 00BF     		.section	.text.moveAcceptedLED,"ax",%progbits
 471              		.align	2
 472              		.global	moveAcceptedLED
 473              		.thumb
 474              		.thumb_func
 475              		.type	moveAcceptedLED, %function
 476              	moveAcceptedLED:
 477              	.LFB68:
 164:LedControl.c  ****     end = 1;
 478              		.loc 1 164 0
 479              		.cfi_startproc
 480              		@ args = 0, pretend = 0, frame = 0
 481              		@ frame_needed = 0, uses_anonymous_args = 0
 482              	.LVL25:
 483 0000 38B5     		push	{r3, r4, r5, lr}
 484              		.cfi_def_cfa_offset 16
 485              		.cfi_offset 3, -16
 486              		.cfi_offset 4, -12
 487              		.cfi_offset 5, -8
 488              		.cfi_offset 14, -4
 165:LedControl.c  ****     for (uint8_t i = 0; i < 64; i++)
 489              		.loc 1 165 0
 490 0002 0122     		movs	r2, #1
 491 0004 124B     		ldr	r3, .L43
 492 0006 1A60     		str	r2, [r3]
 493              	.LVL26:
 494              	.LBB5:
 166:LedControl.c  ****     {
 495              		.loc 1 166 0
 496 0008 0023     		movs	r3, #0
ARM GAS  C:\Users\Simon\AppData\Local\Temp\ccWaoNZX.s 			page 14


 497 000a 15E0     		b	.L39
 498              	.LVL27:
 499              	.L41:
 168:LedControl.c  ****         ledData[i * 3 + 1] = 0;          //Rød  
 500              		.loc 1 168 0
 501 000c 03EB4302 		add	r2, r3, r3, lsl #1
 502 0010 1049     		ldr	r1, .L43+4
 503 0012 0024     		movs	r4, #0
 504 0014 8C54     		strb	r4, [r1, r2]
 169:LedControl.c  ****         ledData[i * 3 + 2] = 0;          //Blå
 505              		.loc 1 169 0
 506 0016 551C     		adds	r5, r2, #1
 507 0018 4C55     		strb	r4, [r1, r5]
 170:LedControl.c  ****         if(i == ledNr)
 508              		.loc 1 170 0
 509 001a 0232     		adds	r2, r2, #2
 510 001c 8C54     		strb	r4, [r1, r2]
 171:LedControl.c  ****         {
 511              		.loc 1 171 0
 512 001e 8342     		cmp	r3, r0
 513 0020 08D1     		bne	.L40
 173:LedControl.c  ****             ledData[ledNr * 3 + 1] = 0;                 //Rød  
 514              		.loc 1 173 0
 515 0022 00EB4002 		add	r2, r0, r0, lsl #1
 516 0026 1424     		movs	r4, #20
 517 0028 8C54     		strb	r4, [r1, r2]
 174:LedControl.c  ****             ledData[ledNr * 3 + 2] = 0;                 //Blå
 518              		.loc 1 174 0
 519 002a 551C     		adds	r5, r2, #1
 520 002c 0024     		movs	r4, #0
 521 002e 4C55     		strb	r4, [r1, r5]
 175:LedControl.c  ****         }
 522              		.loc 1 175 0
 523 0030 0232     		adds	r2, r2, #2
 524 0032 8C54     		strb	r4, [r1, r2]
 525              	.L40:
 166:LedControl.c  ****     {
 526              		.loc 1 166 0 discriminator 2
 527 0034 0133     		adds	r3, r3, #1
 528              	.LVL28:
 529 0036 DBB2     		uxtb	r3, r3
 530              	.LVL29:
 531              	.L39:
 166:LedControl.c  ****     {
 532              		.loc 1 166 0 is_stmt 0 discriminator 1
 533 0038 3F2B     		cmp	r3, #63
 534 003a E7D9     		bls	.L41
 535              	.LBE5:
 179:LedControl.c  ****     
 536              		.loc 1 179 0 is_stmt 1
 537 003c FFF7FEFF 		bl	pwmLedInterrupt
 538              	.LVL30:
 181:LedControl.c  ****     
 539              		.loc 1 181 0
 540 0040 4FF4FA60 		mov	r0, #2000
 541 0044 FFF7FEFF 		bl	CyDelay
 542              	.LVL31:
ARM GAS  C:\Users\Simon\AppData\Local\Temp\ccWaoNZX.s 			page 15


 183:LedControl.c  **** }
 543              		.loc 1 183 0
 544 0048 FFF7FEFF 		bl	turnOffLEDs
 545              	.LVL32:
 546 004c 38BD     		pop	{r3, r4, r5, pc}
 547              	.L44:
 548 004e 00BF     		.align	2
 549              	.L43:
 550 0050 00000000 		.word	end
 551 0054 00000000 		.word	ledData
 552              		.cfi_endproc
 553              	.LFE68:
 554              		.size	moveAcceptedLED, .-moveAcceptedLED
 555              		.section	.text.initLED,"ax",%progbits
 556              		.align	2
 557              		.global	initLED
 558              		.thumb
 559              		.thumb_func
 560              		.type	initLED, %function
 561              	initLED:
 562              	.LFB69:
 187:LedControl.c  ****     isr_PWM_StartEx(PWM_ISR_handler);
 563              		.loc 1 187 0
 564              		.cfi_startproc
 565              		@ args = 0, pretend = 0, frame = 0
 566              		@ frame_needed = 0, uses_anonymous_args = 0
 567 0000 08B5     		push	{r3, lr}
 568              		.cfi_def_cfa_offset 8
 569              		.cfi_offset 3, -8
 570              		.cfi_offset 14, -4
 188:LedControl.c  ****     bitIndex = 7;
 571              		.loc 1 188 0
 572 0002 0648     		ldr	r0, .L47
 573 0004 FFF7FEFF 		bl	isr_PWM_StartEx
 574              	.LVL33:
 189:LedControl.c  ****     byteIndex = 0;
 575              		.loc 1 189 0
 576 0008 0722     		movs	r2, #7
 577 000a 054B     		ldr	r3, .L47+4
 578 000c 1A70     		strb	r2, [r3]
 190:LedControl.c  ****     turnOffLEDs();
 579              		.loc 1 190 0
 580 000e 0022     		movs	r2, #0
 581 0010 044B     		ldr	r3, .L47+8
 582 0012 1A80     		strh	r2, [r3]	@ movhi
 191:LedControl.c  **** }
 583              		.loc 1 191 0
 584 0014 FFF7FEFF 		bl	turnOffLEDs
 585              	.LVL34:
 586 0018 08BD     		pop	{r3, pc}
 587              	.L48:
 588 001a 00BF     		.align	2
 589              	.L47:
 590 001c 00000000 		.word	PWM_ISR_handler
 591 0020 00000000 		.word	bitIndex
 592 0024 00000000 		.word	byteIndex
 593              		.cfi_endproc
ARM GAS  C:\Users\Simon\AppData\Local\Temp\ccWaoNZX.s 			page 16


 594              	.LFE69:
 595              		.size	initLED, .-initLED
 596              		.section	.text.LEDtest,"ax",%progbits
 597              		.align	2
 598              		.global	LEDtest
 599              		.thumb
 600              		.thumb_func
 601              		.type	LEDtest, %function
 602              	LEDtest:
 603              	.LFB71:
 200:LedControl.c  **** 
 201:LedControl.c  **** 
 202:LedControl.c  **** void LEDtest()
 203:LedControl.c  **** {
 604              		.loc 1 203 0
 605              		.cfi_startproc
 606              		@ args = 0, pretend = 0, frame = 192
 607              		@ frame_needed = 0, uses_anonymous_args = 0
 608 0000 00B5     		push	{lr}
 609              		.cfi_def_cfa_offset 4
 610              		.cfi_offset 14, -4
 611 0002 B1B0     		sub	sp, sp, #196
 612              		.cfi_def_cfa_offset 200
 613              	.LVL35:
 614              	.LBB6:
 204:LedControl.c  ****     uint8_t array [SIZE * 3];
 205:LedControl.c  ****     
 206:LedControl.c  ****     //Sluk / Tænd alle Led'er
 207:LedControl.c  ****     for(int i = 0; i < SIZE ; i++)
 615              		.loc 1 207 0
 616 0004 0022     		movs	r2, #0
 617 0006 11E0     		b	.L50
 618              	.LVL36:
 619              	.L51:
 208:LedControl.c  ****     {
 209:LedControl.c  ****      array[i * 3] = 0;
 620              		.loc 1 209 0 discriminator 3
 621 0008 02EB4203 		add	r3, r2, r2, lsl #1
 622 000c 30A9     		add	r1, sp, #192
 623 000e C818     		adds	r0, r1, r3
 624 0010 0021     		movs	r1, #0
 625 0012 00F8C01C 		strb	r1, [r0, #-192]
 210:LedControl.c  ****      array[i * 3 + 1] = 0;
 626              		.loc 1 210 0 discriminator 3
 627 0016 581C     		adds	r0, r3, #1
 628 0018 0DF1C00E 		add	lr, sp, #192
 629 001c 7044     		add	r0, r0, lr
 630 001e 00F8C01C 		strb	r1, [r0, #-192]
 211:LedControl.c  ****      array[i * 3 + 2] = 0;
 631              		.loc 1 211 0 discriminator 3
 632 0022 0233     		adds	r3, r3, #2
 633 0024 7344     		add	r3, r3, lr
 634 0026 03F8C01C 		strb	r1, [r3, #-192]
 207:LedControl.c  ****     {
 635              		.loc 1 207 0 discriminator 3
 636 002a 0132     		adds	r2, r2, #1
 637              	.LVL37:
ARM GAS  C:\Users\Simon\AppData\Local\Temp\ccWaoNZX.s 			page 17


 638              	.L50:
 207:LedControl.c  ****     {
 639              		.loc 1 207 0 is_stmt 0 discriminator 1
 640 002c 3F2A     		cmp	r2, #63
 641 002e EBDD     		ble	.L51
 642              	.LVL38:
 643              	.LBE6:
 212:LedControl.c  ****     }
 213:LedControl.c  ****     
 214:LedControl.c  ****     /*     Array:
 215:LedControl.c  **** 
 216:LedControl.c  ****                   Byte1 Byte2 Byte3               
 217:LedControl.c  **** 
 218:LedControl.c  ****         Led 1    [[Grøn][Rød][Blå]]
 219:LedControl.c  ****         Led 2    [[Grøn][Rød][Blå]]
 220:LedControl.c  ****         ...      [...             ]
 221:LedControl.c  ****         Led 64   [[Grøn][Rød][Blå]]
 222:LedControl.c  ****     */
 223:LedControl.c  ****     
 224:LedControl.c  ****     //Tænd en LED//
 225:LedControl.c  ****     
 226:LedControl.c  ****     //Vælg LED nr//
 227:LedControl.c  ****     int ledNr = 10;  
 228:LedControl.c  ****     
 229:LedControl.c  ****     //Vælg Farve//
 230:LedControl.c  ****     array[ledNr * 3]     = 0;       //Grøn
 644              		.loc 1 230 0 is_stmt 1
 645 0030 0023     		movs	r3, #0
 646 0032 8DF81E30 		strb	r3, [sp, #30]
 231:LedControl.c  ****     array[ledNr * 3 + 1] = 0;     //Rød
 647              		.loc 1 231 0
 648 0036 8DF81F30 		strb	r3, [sp, #31]
 232:LedControl.c  ****     array[ledNr * 3 + 2] = 255;     //Blå
 649              		.loc 1 232 0
 650 003a FF23     		movs	r3, #255
 651 003c 8DF82030 		strb	r3, [sp, #32]
 233:LedControl.c  ****     
 234:LedControl.c  ****     
 235:LedControl.c  ****     setLEDs(array);
 652              		.loc 1 235 0
 653 0040 6846     		mov	r0, sp
 654 0042 FFF7FEFF 		bl	setLEDs
 655              	.LVL39:
 236:LedControl.c  **** }...
 656              		.loc 1 236 0
 657 0046 31B0     		add	sp, sp, #196
 658              		.cfi_def_cfa_offset 4
 659              		@ sp needed
 660 0048 5DF804FB 		ldr	pc, [sp], #4
 661              		.cfi_endproc
 662              	.LFE71:
 663              		.size	LEDtest, .-LEDtest
 664              		.global	whiteSquareArray
 665              		.comm	end,4,4
 666              		.comm	byteIndex,2,2
 667              		.comm	bitIndex,1,1
 668              		.comm	ledData,192,4
ARM GAS  C:\Users\Simon\AppData\Local\Temp\ccWaoNZX.s 			page 18


 669              		.comm	ledArray,64,4
 670              		.comm	deadLiftPos,1,1
 671              		.comm	liftPos,1,1
 672              		.comm	newPos,1,1
 673              		.comm	deadPieceLifted,1,1
 674              		.comm	pieceLifted,1,1
 675              		.comm	squareReg,64,4
 676              		.comm	lastSquareReg,64,4
 677              		.comm	legalMoves,64,4
 678              		.comm	startChar,1,1
 679              		.comm	stepCase,1,1
 680              		.comm	currentSquare,1,1
 681              		.data
 682              		.align	2
 683              		.set	.LANCHOR0,. + 0
 684              		.type	whiteSquareArray, %object
 685              		.size	whiteSquareArray, 64
 686              	whiteSquareArray:
 687 0000 00       		.byte	0
 688 0001 01       		.byte	1
 689 0002 00       		.byte	0
 690 0003 01       		.byte	1
 691 0004 00       		.byte	0
 692 0005 01       		.byte	1
 693 0006 00       		.byte	0
 694 0007 01       		.byte	1
 695 0008 01       		.byte	1
 696 0009 00       		.byte	0
 697 000a 01       		.byte	1
 698 000b 00       		.byte	0
 699 000c 01       		.byte	1
 700 000d 00       		.byte	0
 701 000e 01       		.byte	1
 702 000f 00       		.byte	0
 703 0010 00       		.byte	0
 704 0011 01       		.byte	1
 705 0012 00       		.byte	0
 706 0013 01       		.byte	1
 707 0014 00       		.byte	0
 708 0015 01       		.byte	1
 709 0016 00       		.byte	0
 710 0017 01       		.byte	1
 711 0018 01       		.byte	1
 712 0019 00       		.byte	0
 713 001a 01       		.byte	1
 714 001b 00       		.byte	0
 715 001c 01       		.byte	1
 716 001d 00       		.byte	0
 717 001e 01       		.byte	1
 718 001f 00       		.byte	0
 719 0020 00       		.byte	0
 720 0021 01       		.byte	1
 721 0022 00       		.byte	0
 722 0023 01       		.byte	1
 723 0024 00       		.byte	0
 724 0025 01       		.byte	1
 725 0026 00       		.byte	0
ARM GAS  C:\Users\Simon\AppData\Local\Temp\ccWaoNZX.s 			page 19


 726 0027 01       		.byte	1
 727 0028 01       		.byte	1
 728 0029 00       		.byte	0
 729 002a 01       		.byte	1
 730 002b 00       		.byte	0
 731 002c 01       		.byte	1
 732 002d 00       		.byte	0
 733 002e 01       		.byte	1
 734 002f 00       		.byte	0
 735 0030 00       		.byte	0
 736 0031 01       		.byte	1
 737 0032 00       		.byte	0
 738 0033 01       		.byte	1
 739 0034 00       		.byte	0
 740 0035 01       		.byte	1
 741 0036 00       		.byte	0
 742 0037 01       		.byte	1
 743 0038 01       		.byte	1
 744 0039 00       		.byte	0
 745 003a 01       		.byte	1
 746 003b 00       		.byte	0
 747 003c 01       		.byte	1
 748 003d 00       		.byte	0
 749 003e 01       		.byte	1
 750 003f 00       		.byte	0
 751              		.text
 752              	.Letext0:
 753              		.file 2 "c:\\program files (x86)\\cypress\\psoc creator\\4.4\\psoc creator\\import\\gnu\\arm\\5.4.
 754              		.file 3 "c:\\program files (x86)\\cypress\\psoc creator\\4.4\\psoc creator\\import\\gnu\\arm\\5.4.
 755              		.file 4 "Generated_Source\\PSoC5/core_cm3.h"
 756              		.file 5 "XYPlotter.h"
 757              		.file 6 "UART.h"
 758              		.file 7 "Sensor.h"
 759              		.file 8 "LedControl.h"
 760              		.file 9 "Generated_Source\\PSoC5/PWM.h"
 761              		.file 10 "Generated_Source\\PSoC5/Control_Reg_1.h"
 762              		.file 11 "Generated_Source\\PSoC5/CyLib.h"
 763              		.file 12 "Generated_Source\\PSoC5/isr_PWM.h"