ARM GAS  C:\Users\Simon\AppData\Local\Temp\ccpjuKrO.s 			page 1


   1              		.syntax unified
   2              		.cpu cortex-m3
   3              		.fpu softvfp
   4              		.eabi_attribute 20, 1
   5              		.eabi_attribute 21, 1
   6              		.eabi_attribute 23, 3
   7              		.eabi_attribute 24, 1
   8              		.eabi_attribute 25, 1
   9              		.eabi_attribute 26, 1
  10              		.eabi_attribute 30, 1
  11              		.eabi_attribute 34, 1
  12              		.eabi_attribute 18, 4
  13              		.thumb
  14              		.syntax unified
  15              		.file	"LEDRoboMate.c"
  16              		.text
  17              	.Ltext0:
  18              		.cfi_sections	.debug_frame
  19              		.section	.text.PWM_ISR_handler,"ax",%progbits
  20              		.align	2
  21              		.global	PWM_ISR_handler
  22              		.thumb
  23              		.thumb_func
  24              		.type	PWM_ISR_handler, %function
  25              	PWM_ISR_handler:
  26              	.LFB63:
  27              		.file 1 "LEDRoboMate.c"
   1:LEDRoboMate.c **** #include "LEDRoboMate.h"   
   2:LEDRoboMate.c **** 
   3:LEDRoboMate.c **** volatile int8_t bitIndex = 7;
   4:LEDRoboMate.c **** volatile uint16_t byteIndex = 0;
   5:LEDRoboMate.c **** volatile int end;
   6:LEDRoboMate.c **** 
   7:LEDRoboMate.c **** volatile uint8_t ledData[NUM_LEDS * 3];
   8:LEDRoboMate.c ****  
   9:LEDRoboMate.c **** 
  10:LEDRoboMate.c **** /*
  11:LEDRoboMate.c **** Gå under fanen "Clocks" <--. Dobbeltklik "PLL_Out"
  12:LEDRoboMate.c **** Sæt "Desired" under PLL_OUT til 70 Mhz
  13:LEDRoboMate.c **** Sæt Master clock til at modtage "PLL_OUT(70 mHz)"
  14:LEDRoboMate.c **** Indstil Divider til 1
  15:LEDRoboMate.c **** */
  16:LEDRoboMate.c **** 
  17:LEDRoboMate.c **** 
  18:LEDRoboMate.c ****     /*     Array:
  19:LEDRoboMate.c **** 
  20:LEDRoboMate.c ****                   Byte1 Byte2 Byte3               
  21:LEDRoboMate.c **** 
  22:LEDRoboMate.c ****         Led 1    [[Grøn][Rød][Blå]]
  23:LEDRoboMate.c ****         Led 2    [[Grøn][Rød][Blå]]
  24:LEDRoboMate.c ****         ...      [...             ]
  25:LEDRoboMate.c ****         Led 64   [[Grøn][Rød][Blå]]
  26:LEDRoboMate.c ****     */
  27:LEDRoboMate.c **** 
  28:LEDRoboMate.c **** CY_ISR(PWM_ISR_handler)
  29:LEDRoboMate.c **** {
  28              		.loc 1 29 0
ARM GAS  C:\Users\Simon\AppData\Local\Temp\ccpjuKrO.s 			page 2


  29              		.cfi_startproc
  30              		@ args = 0, pretend = 0, frame = 0
  31              		@ frame_needed = 0, uses_anonymous_args = 0
  32 0000 08B5     		push	{r3, lr}
  33              		.cfi_def_cfa_offset 8
  34              		.cfi_offset 3, -8
  35              		.cfi_offset 14, -4
  30:LEDRoboMate.c ****     if (ledData[byteIndex] & (1 << bitIndex) && bitIndex >= 0)
  36              		.loc 1 30 0
  37 0002 144B     		ldr	r3, .L5
  38 0004 1B88     		ldrh	r3, [r3]
  39 0006 9BB2     		uxth	r3, r3
  40 0008 134A     		ldr	r2, .L5+4
  41 000a D35C     		ldrb	r3, [r2, r3]	@ zero_extendqisi2
  42 000c DAB2     		uxtb	r2, r3
  43 000e 134B     		ldr	r3, .L5+8
  44 0010 1B78     		ldrb	r3, [r3]	@ zero_extendqisi2
  45 0012 5BB2     		sxtb	r3, r3
  46 0014 42FA03F3 		asr	r3, r2, r3
  47 0018 13F0010F 		tst	r3, #1
  48 001c 0BD0     		beq	.L2
  49              		.loc 1 30 0 is_stmt 0 discriminator 1
  50 001e 0F4B     		ldr	r3, .L5+8
  51 0020 1B78     		ldrb	r3, [r3]	@ zero_extendqisi2
  52 0022 13F0800F 		tst	r3, #128
  53 0026 06D1     		bne	.L2
  31:LEDRoboMate.c ****     {
  32:LEDRoboMate.c ****         PWM_WriteCompare(T_HIGH);
  54              		.loc 1 32 0 is_stmt 1
  55 0028 0020     		movs	r0, #0
  56 002a FFF7FEFF 		bl	PWM_WriteCompare
  57              	.LVL0:
  33:LEDRoboMate.c ****         Control_Reg_1_Write(1);
  58              		.loc 1 33 0
  59 002e 0120     		movs	r0, #1
  60 0030 FFF7FEFF 		bl	Control_Reg_1_Write
  61              	.LVL1:
  62 0034 05E0     		b	.L3
  63              	.L2:
  34:LEDRoboMate.c ****     }
  35:LEDRoboMate.c ****     else
  36:LEDRoboMate.c ****     {
  37:LEDRoboMate.c ****         PWM_WriteCompare(T_LOW);
  64              		.loc 1 37 0
  65 0036 1B20     		movs	r0, #27
  66 0038 FFF7FEFF 		bl	PWM_WriteCompare
  67              	.LVL2:
  38:LEDRoboMate.c ****         Control_Reg_1_Write(1);
  68              		.loc 1 38 0
  69 003c 0120     		movs	r0, #1
  70 003e FFF7FEFF 		bl	Control_Reg_1_Write
  71              	.LVL3:
  72              	.L3:
  39:LEDRoboMate.c ****     }
  40:LEDRoboMate.c **** 
  41:LEDRoboMate.c ****     bitIndex--;
  73              		.loc 1 41 0
ARM GAS  C:\Users\Simon\AppData\Local\Temp\ccpjuKrO.s 			page 3


  74 0042 064A     		ldr	r2, .L5+8
  75 0044 1378     		ldrb	r3, [r2]	@ zero_extendqisi2
  76 0046 5BB2     		sxtb	r3, r3
  77 0048 013B     		subs	r3, r3, #1
  78 004a 5BB2     		sxtb	r3, r3
  79 004c 1370     		strb	r3, [r2]
  42:LEDRoboMate.c **** 
  43:LEDRoboMate.c ****     PWM_ReadStatusRegister();
  80              		.loc 1 43 0
  81 004e FFF7FEFF 		bl	PWM_ReadStatusRegister
  82              	.LVL4:
  83 0052 08BD     		pop	{r3, pc}
  84              	.L6:
  85              		.align	2
  86              	.L5:
  87 0054 00000000 		.word	.LANCHOR0
  88 0058 00000000 		.word	ledData
  89 005c 00000000 		.word	.LANCHOR1
  90              		.cfi_endproc
  91              	.LFE63:
  92              		.size	PWM_ISR_handler, .-PWM_ISR_handler
  93              		.section	.text.pwmLedInterrupt,"ax",%progbits
  94              		.align	2
  95              		.global	pwmLedInterrupt
  96              		.thumb
  97              		.thumb_func
  98              		.type	pwmLedInterrupt, %function
  99              	pwmLedInterrupt:
 100              	.LFB65:
  44:LEDRoboMate.c **** }
  45:LEDRoboMate.c **** 
  46:LEDRoboMate.c **** void setLEDs(uint8_t array[SIZE])
  47:LEDRoboMate.c **** {
  48:LEDRoboMate.c ****     end = 1;
  49:LEDRoboMate.c ****     for(int i = 0; i < NUM_LEDS; i++)
  50:LEDRoboMate.c ****     {
  51:LEDRoboMate.c ****         ledArray[i] = array[i];
  52:LEDRoboMate.c ****     }
  53:LEDRoboMate.c ****     
  54:LEDRoboMate.c ****     // Lav en forløkke der løber igennem. HUSK at det der modtages er fra RPI legalMoves.
  55:LEDRoboMate.c ****     // i array[i]. Hvis gældene plads skal tændes(er et 1'tal), 
  56:LEDRoboMate.c ****     // køres der nogle if-statement, der styrer hvilken farve led'erne har.
  57:LEDRoboMate.c ****     
  58:LEDRoboMate.c ****     sensorScan(); // Opdaterer squareReg[]
  59:LEDRoboMate.c ****     
  60:LEDRoboMate.c ****     for (uint8_t i = 0; i < 64; i++) // Opdaterer ledData[SIZE*3] med de rigtige farver på led'ern
  61:LEDRoboMate.c ****     {   
  62:LEDRoboMate.c ****         if(ledArray[i] == 1 && ledArray[i] == squareReg[i]) //
  63:LEDRoboMate.c ****         {    
  64:LEDRoboMate.c ****             //Vælg Farve//
  65:LEDRoboMate.c ****             ledData[i * 3]     = 0;       //Grøn
  66:LEDRoboMate.c ****             ledData[i * 3 + 1] = LED_INTESITY;     //Rød
  67:LEDRoboMate.c ****             ledData[i * 3 + 2] = 0;     //Blå
  68:LEDRoboMate.c ****         }
  69:LEDRoboMate.c ****         if(ledArray[i] == 1 && ledArray[i] != squareReg[i])
  70:LEDRoboMate.c ****         {
  71:LEDRoboMate.c ****             //Vælg Farve//
ARM GAS  C:\Users\Simon\AppData\Local\Temp\ccpjuKrO.s 			page 4


  72:LEDRoboMate.c ****             ledData[i * 3]     = 0;       //Grøn
  73:LEDRoboMate.c ****             ledData[i * 3 + 1] = 0;       //Rød
  74:LEDRoboMate.c ****             ledData[i * 3 + 2] = LED_INTESITY;     //Blå
  75:LEDRoboMate.c ****         }
  76:LEDRoboMate.c ****         if(ledArray[i] == 0)
  77:LEDRoboMate.c ****         {
  78:LEDRoboMate.c ****             //Vælg Farve//
  79:LEDRoboMate.c ****             ledData[i * 3]     = 0;       //Grøn
  80:LEDRoboMate.c ****             ledData[i * 3 + 1] = 0;       //Rød   // Sluk
  81:LEDRoboMate.c ****             ledData[i * 3 + 2] = 0;       //Blå
  82:LEDRoboMate.c ****         }
  83:LEDRoboMate.c ****     }  
  84:LEDRoboMate.c **** 
  85:LEDRoboMate.c ****     pwmLedInterrupt();
  86:LEDRoboMate.c **** }
  87:LEDRoboMate.c **** 
  88:LEDRoboMate.c **** void pwmLedInterrupt()
  89:LEDRoboMate.c **** {
 101              		.loc 1 89 0
 102              		.cfi_startproc
 103              		@ args = 0, pretend = 0, frame = 0
 104              		@ frame_needed = 0, uses_anonymous_args = 0
 105 0000 08B5     		push	{r3, lr}
 106              		.cfi_def_cfa_offset 8
 107              		.cfi_offset 3, -8
 108              		.cfi_offset 14, -4
  90:LEDRoboMate.c ****     PWM_Start();
 109              		.loc 1 90 0
 110 0002 FFF7FEFF 		bl	PWM_Start
 111              	.LVL5:
  91:LEDRoboMate.c ****     Control_Reg_1_Write(1);
 112              		.loc 1 91 0
 113 0006 0120     		movs	r0, #1
 114 0008 FFF7FEFF 		bl	Control_Reg_1_Write
 115              	.LVL6:
  92:LEDRoboMate.c **** 
  93:LEDRoboMate.c ****     // Vent indtil alle bits er sendt
  94:LEDRoboMate.c ****     while(end)
 116              		.loc 1 94 0
 117 000c 18E0     		b	.L9
 118              	.L11:
  95:LEDRoboMate.c ****     {
  96:LEDRoboMate.c ****         // Tjek om vi har sendt alle 24 bits
  97:LEDRoboMate.c ****         if (bitIndex < 0)
 119              		.loc 1 97 0
 120 000e 0F4B     		ldr	r3, .L13
 121 0010 1B78     		ldrb	r3, [r3]	@ zero_extendqisi2
 122 0012 13F0800F 		tst	r3, #128
 123 0016 13D0     		beq	.L9
  98:LEDRoboMate.c ****         {
  99:LEDRoboMate.c ****             bitIndex = 7;
 124              		.loc 1 99 0
 125 0018 0722     		movs	r2, #7
 126 001a 0C4B     		ldr	r3, .L13
 127 001c 1A70     		strb	r2, [r3]
 100:LEDRoboMate.c ****             byteIndex++;
 128              		.loc 1 100 0
ARM GAS  C:\Users\Simon\AppData\Local\Temp\ccpjuKrO.s 			page 5


 129 001e 0C4A     		ldr	r2, .L13+4
 130 0020 1388     		ldrh	r3, [r2]
 131 0022 9BB2     		uxth	r3, r3
 132 0024 0133     		adds	r3, r3, #1
 133 0026 9BB2     		uxth	r3, r3
 134 0028 1380     		strh	r3, [r2]	@ movhi
 101:LEDRoboMate.c ****             if(byteIndex >= (NUM_LEDS * 3))
 135              		.loc 1 101 0
 136 002a 1388     		ldrh	r3, [r2]
 137 002c 9BB2     		uxth	r3, r3
 138 002e BF2B     		cmp	r3, #191
 139 0030 06D9     		bls	.L9
 102:LEDRoboMate.c ****             {
 103:LEDRoboMate.c ****                 // Alle bits er blevet sendt, stop PWM
 104:LEDRoboMate.c ****                 PWM_Stop();
 140              		.loc 1 104 0
 141 0032 FFF7FEFF 		bl	PWM_Stop
 142              	.LVL7:
 105:LEDRoboMate.c ****                 byteIndex = 0;
 143              		.loc 1 105 0
 144 0036 0023     		movs	r3, #0
 145 0038 054A     		ldr	r2, .L13+4
 146 003a 1380     		strh	r3, [r2]	@ movhi
 106:LEDRoboMate.c ****                 end = 0;
 147              		.loc 1 106 0
 148 003c 054A     		ldr	r2, .L13+8
 149 003e 1360     		str	r3, [r2]
 150              	.L9:
  94:LEDRoboMate.c ****     {
 151              		.loc 1 94 0
 152 0040 044B     		ldr	r3, .L13+8
 153 0042 1B68     		ldr	r3, [r3]
 154 0044 002B     		cmp	r3, #0
 155 0046 E2D1     		bne	.L11
 107:LEDRoboMate.c ****             }
 108:LEDRoboMate.c ****         }
 109:LEDRoboMate.c ****     }
 110:LEDRoboMate.c **** }
 156              		.loc 1 110 0
 157 0048 08BD     		pop	{r3, pc}
 158              	.L14:
 159 004a 00BF     		.align	2
 160              	.L13:
 161 004c 00000000 		.word	.LANCHOR1
 162 0050 00000000 		.word	.LANCHOR0
 163 0054 00000000 		.word	end
 164              		.cfi_endproc
 165              	.LFE65:
 166              		.size	pwmLedInterrupt, .-pwmLedInterrupt
 167              		.section	.text.setLEDs,"ax",%progbits
 168              		.align	2
 169              		.global	setLEDs
 170              		.thumb
 171              		.thumb_func
 172              		.type	setLEDs, %function
 173              	setLEDs:
 174              	.LFB64:
ARM GAS  C:\Users\Simon\AppData\Local\Temp\ccpjuKrO.s 			page 6


  47:LEDRoboMate.c ****     end = 1;
 175              		.loc 1 47 0
 176              		.cfi_startproc
 177              		@ args = 0, pretend = 0, frame = 0
 178              		@ frame_needed = 0, uses_anonymous_args = 0
 179              	.LVL8:
 180 0000 F8B5     		push	{r3, r4, r5, r6, r7, lr}
 181              		.cfi_def_cfa_offset 24
 182              		.cfi_offset 3, -24
 183              		.cfi_offset 4, -20
 184              		.cfi_offset 5, -16
 185              		.cfi_offset 6, -12
 186              		.cfi_offset 7, -8
 187              		.cfi_offset 14, -4
  48:LEDRoboMate.c ****     for(int i = 0; i < NUM_LEDS; i++)
 188              		.loc 1 48 0
 189 0002 0122     		movs	r2, #1
 190 0004 204B     		ldr	r3, .L24
 191 0006 1A60     		str	r2, [r3]
 192              	.LVL9:
 193              	.LBB2:
  49:LEDRoboMate.c ****     {
 194              		.loc 1 49 0
 195 0008 0023     		movs	r3, #0
 196 000a 03E0     		b	.L16
 197              	.LVL10:
 198              	.L17:
  51:LEDRoboMate.c ****     }
 199              		.loc 1 51 0 discriminator 3
 200 000c C15C     		ldrb	r1, [r0, r3]	@ zero_extendqisi2
 201 000e 1F4A     		ldr	r2, .L24+4
 202 0010 D154     		strb	r1, [r2, r3]
  49:LEDRoboMate.c ****     {
 203              		.loc 1 49 0 discriminator 3
 204 0012 0133     		adds	r3, r3, #1
 205              	.LVL11:
 206              	.L16:
  49:LEDRoboMate.c ****     {
 207              		.loc 1 49 0 is_stmt 0 discriminator 1
 208 0014 3F2B     		cmp	r3, #63
 209 0016 F9DD     		ble	.L17
 210              	.LBE2:
  58:LEDRoboMate.c ****     
 211              		.loc 1 58 0 is_stmt 1
 212 0018 FFF7FEFF 		bl	sensorScan
 213              	.LVL12:
 214              	.LBB3:
  60:LEDRoboMate.c ****     {   
 215              		.loc 1 60 0
 216 001c 0023     		movs	r3, #0
 217 001e 2EE0     		b	.L18
 218              	.LVL13:
 219              	.L22:
  62:LEDRoboMate.c ****         {    
 220              		.loc 1 62 0
 221 0020 1A46     		mov	r2, r3
 222 0022 1A49     		ldr	r1, .L24+4
ARM GAS  C:\Users\Simon\AppData\Local\Temp\ccpjuKrO.s 			page 7


 223 0024 C95C     		ldrb	r1, [r1, r3]	@ zero_extendqisi2
 224 0026 0129     		cmp	r1, #1
 225 0028 0DD1     		bne	.L19
  62:LEDRoboMate.c ****         {    
 226              		.loc 1 62 0 is_stmt 0 discriminator 1
 227 002a 1948     		ldr	r0, .L24+8
 228 002c C05C     		ldrb	r0, [r0, r3]	@ zero_extendqisi2
 229 002e 8142     		cmp	r1, r0
 230 0030 09D1     		bne	.L19
  65:LEDRoboMate.c ****             ledData[i * 3 + 1] = LED_INTESITY;     //Rød
 231              		.loc 1 65 0 is_stmt 1
 232 0032 03EB4300 		add	r0, r3, r3, lsl #1
 233 0036 174C     		ldr	r4, .L24+12
 234 0038 0025     		movs	r5, #0
 235 003a 2554     		strb	r5, [r4, r0]
  66:LEDRoboMate.c ****             ledData[i * 3 + 2] = 0;     //Blå
 236              		.loc 1 66 0
 237 003c 461C     		adds	r6, r0, #1
 238 003e 6427     		movs	r7, #100
 239 0040 A755     		strb	r7, [r4, r6]
  67:LEDRoboMate.c ****         }
 240              		.loc 1 67 0
 241 0042 0230     		adds	r0, r0, #2
 242 0044 2554     		strb	r5, [r4, r0]
 243              	.L19:
  69:LEDRoboMate.c ****         {
 244              		.loc 1 69 0
 245 0046 0129     		cmp	r1, #1
 246 0048 0DD1     		bne	.L20
  69:LEDRoboMate.c ****         {
 247              		.loc 1 69 0 is_stmt 0 discriminator 1
 248 004a 1148     		ldr	r0, .L24+8
 249 004c 805C     		ldrb	r0, [r0, r2]	@ zero_extendqisi2
 250 004e 8142     		cmp	r1, r0
 251 0050 09D0     		beq	.L20
  72:LEDRoboMate.c ****             ledData[i * 3 + 1] = 0;       //Rød
 252              		.loc 1 72 0 is_stmt 1
 253 0052 02EB4200 		add	r0, r2, r2, lsl #1
 254 0056 0F4C     		ldr	r4, .L24+12
 255 0058 0025     		movs	r5, #0
 256 005a 2554     		strb	r5, [r4, r0]
  73:LEDRoboMate.c ****             ledData[i * 3 + 2] = LED_INTESITY;     //Blå
 257              		.loc 1 73 0
 258 005c 461C     		adds	r6, r0, #1
 259 005e A555     		strb	r5, [r4, r6]
  74:LEDRoboMate.c ****         }
 260              		.loc 1 74 0
 261 0060 0230     		adds	r0, r0, #2
 262 0062 6425     		movs	r5, #100
 263 0064 2554     		strb	r5, [r4, r0]
 264              	.L20:
  76:LEDRoboMate.c ****         {
 265              		.loc 1 76 0
 266 0066 41B9     		cbnz	r1, .L21
  79:LEDRoboMate.c ****             ledData[i * 3 + 1] = 0;       //Rød   // Sluk
 267              		.loc 1 79 0
 268 0068 02EB4202 		add	r2, r2, r2, lsl #1
ARM GAS  C:\Users\Simon\AppData\Local\Temp\ccpjuKrO.s 			page 8


 269 006c 0949     		ldr	r1, .L24+12
 270 006e 0020     		movs	r0, #0
 271 0070 8854     		strb	r0, [r1, r2]
  80:LEDRoboMate.c ****             ledData[i * 3 + 2] = 0;       //Blå
 272              		.loc 1 80 0
 273 0072 541C     		adds	r4, r2, #1
 274 0074 0855     		strb	r0, [r1, r4]
  81:LEDRoboMate.c ****         }
 275              		.loc 1 81 0
 276 0076 0232     		adds	r2, r2, #2
 277 0078 8854     		strb	r0, [r1, r2]
 278              	.L21:
  60:LEDRoboMate.c ****     {   
 279              		.loc 1 60 0 discriminator 2
 280 007a 0133     		adds	r3, r3, #1
 281              	.LVL14:
 282 007c DBB2     		uxtb	r3, r3
 283              	.LVL15:
 284              	.L18:
  60:LEDRoboMate.c ****     {   
 285              		.loc 1 60 0 is_stmt 0 discriminator 1
 286 007e 3F2B     		cmp	r3, #63
 287 0080 CED9     		bls	.L22
 288              	.LBE3:
  85:LEDRoboMate.c **** }
 289              		.loc 1 85 0 is_stmt 1
 290 0082 FFF7FEFF 		bl	pwmLedInterrupt
 291              	.LVL16:
 292 0086 F8BD     		pop	{r3, r4, r5, r6, r7, pc}
 293              	.L25:
 294              		.align	2
 295              	.L24:
 296 0088 00000000 		.word	end
 297 008c 00000000 		.word	ledArray
 298 0090 00000000 		.word	squareReg
 299 0094 00000000 		.word	ledData
 300              		.cfi_endproc
 301              	.LFE64:
 302              		.size	setLEDs, .-setLEDs
 303              		.section	.text.onlyDeadPosLED,"ax",%progbits
 304              		.align	2
 305              		.global	onlyDeadPosLED
 306              		.thumb
 307              		.thumb_func
 308              		.type	onlyDeadPosLED, %function
 309              	onlyDeadPosLED:
 310              	.LFB66:
 111:LEDRoboMate.c **** 
 112:LEDRoboMate.c **** void onlyDeadPosLED(int ledNr)
 113:LEDRoboMate.c **** {
 311              		.loc 1 113 0
 312              		.cfi_startproc
 313              		@ args = 0, pretend = 0, frame = 0
 314              		@ frame_needed = 0, uses_anonymous_args = 0
 315              	.LVL17:
 316 0000 70B5     		push	{r4, r5, r6, lr}
 317              		.cfi_def_cfa_offset 16
ARM GAS  C:\Users\Simon\AppData\Local\Temp\ccpjuKrO.s 			page 9


 318              		.cfi_offset 4, -16
 319              		.cfi_offset 5, -12
 320              		.cfi_offset 6, -8
 321              		.cfi_offset 14, -4
 114:LEDRoboMate.c ****     end = 1;
 322              		.loc 1 114 0
 323 0002 0122     		movs	r2, #1
 324 0004 0E4B     		ldr	r3, .L31
 325 0006 1A60     		str	r2, [r3]
 326              	.LVL18:
 327              	.LBB4:
 115:LEDRoboMate.c ****     for (uint8_t i = 0; i < 64; i++)
 328              		.loc 1 115 0
 329 0008 0023     		movs	r3, #0
 330 000a 14E0     		b	.L27
 331              	.LVL19:
 332              	.L29:
 116:LEDRoboMate.c ****     {
 117:LEDRoboMate.c ****         ledData[i * 3]     = 0;          //Grøn
 333              		.loc 1 117 0
 334 000c 03EB4302 		add	r2, r3, r3, lsl #1
 335 0010 0C49     		ldr	r1, .L31+4
 336 0012 0024     		movs	r4, #0
 337 0014 8C54     		strb	r4, [r1, r2]
 118:LEDRoboMate.c ****         ledData[i * 3 + 1] = 0;          //Rød  
 338              		.loc 1 118 0
 339 0016 551C     		adds	r5, r2, #1
 340 0018 4C55     		strb	r4, [r1, r5]
 119:LEDRoboMate.c ****         ledData[i * 3 + 2] = 0;          //Blå
 341              		.loc 1 119 0
 342 001a 0232     		adds	r2, r2, #2
 343 001c 8C54     		strb	r4, [r1, r2]
 120:LEDRoboMate.c ****         if(i == ledNr)
 344              		.loc 1 120 0
 345 001e 8342     		cmp	r3, r0
 346 0020 07D1     		bne	.L28
 121:LEDRoboMate.c ****         {
 122:LEDRoboMate.c ****             ledData[ledNr * 3]     = 0;      //Grøn
 347              		.loc 1 122 0
 348 0022 00EB4002 		add	r2, r0, r0, lsl #1
 349 0026 8C54     		strb	r4, [r1, r2]
 123:LEDRoboMate.c ****             ledData[ledNr * 3 + 1] = LED_INTESITY;                 //Rød  
 350              		.loc 1 123 0
 351 0028 551C     		adds	r5, r2, #1
 352 002a 6426     		movs	r6, #100
 353 002c 4E55     		strb	r6, [r1, r5]
 124:LEDRoboMate.c ****             ledData[ledNr * 3 + 2] = 0;                 //Blå
 354              		.loc 1 124 0
 355 002e 0232     		adds	r2, r2, #2
 356 0030 8C54     		strb	r4, [r1, r2]
 357              	.L28:
 115:LEDRoboMate.c ****     {
 358              		.loc 1 115 0 discriminator 2
 359 0032 0133     		adds	r3, r3, #1
 360              	.LVL20:
 361 0034 DBB2     		uxtb	r3, r3
 362              	.LVL21:
ARM GAS  C:\Users\Simon\AppData\Local\Temp\ccpjuKrO.s 			page 10


 363              	.L27:
 115:LEDRoboMate.c ****     {
 364              		.loc 1 115 0 is_stmt 0 discriminator 1
 365 0036 3F2B     		cmp	r3, #63
 366 0038 E8D9     		bls	.L29
 367              	.LBE4:
 125:LEDRoboMate.c ****         }
 126:LEDRoboMate.c ****     }
 127:LEDRoboMate.c ****     
 128:LEDRoboMate.c ****     pwmLedInterrupt();
 368              		.loc 1 128 0 is_stmt 1
 369 003a FFF7FEFF 		bl	pwmLedInterrupt
 370              	.LVL22:
 371 003e 70BD     		pop	{r4, r5, r6, pc}
 372              	.L32:
 373              		.align	2
 374              	.L31:
 375 0040 00000000 		.word	end
 376 0044 00000000 		.word	ledData
 377              		.cfi_endproc
 378              	.LFE66:
 379              		.size	onlyDeadPosLED, .-onlyDeadPosLED
 380              		.section	.text.turnOffLEDs,"ax",%progbits
 381              		.align	2
 382              		.global	turnOffLEDs
 383              		.thumb
 384              		.thumb_func
 385              		.type	turnOffLEDs, %function
 386              	turnOffLEDs:
 387              	.LFB69:
 129:LEDRoboMate.c **** }
 130:LEDRoboMate.c **** 
 131:LEDRoboMate.c **** void moveAcceptedLED(int ledNr)
 132:LEDRoboMate.c **** {   
 133:LEDRoboMate.c ****     end = 1;
 134:LEDRoboMate.c ****     for (uint8_t i = 0; i < 64; i++)
 135:LEDRoboMate.c ****     {
 136:LEDRoboMate.c ****         ledData[i * 3]     = 0;          //Grøn
 137:LEDRoboMate.c ****         ledData[i * 3 + 1] = 0;          //Rød  
 138:LEDRoboMate.c ****         ledData[i * 3 + 2] = 0;          //Blå
 139:LEDRoboMate.c ****         if(i == ledNr)
 140:LEDRoboMate.c ****         {
 141:LEDRoboMate.c ****             ledData[ledNr * 3]     = LED_INTESITY;      //Grøn
 142:LEDRoboMate.c ****             ledData[ledNr * 3 + 1] = 0;                 //Rød  
 143:LEDRoboMate.c ****             ledData[ledNr * 3 + 2] = 0;                 //Blå
 144:LEDRoboMate.c ****         }
 145:LEDRoboMate.c ****     }
 146:LEDRoboMate.c ****     
 147:LEDRoboMate.c ****     pwmLedInterrupt();
 148:LEDRoboMate.c ****     
 149:LEDRoboMate.c ****     CyDelay(2000);
 150:LEDRoboMate.c ****     
 151:LEDRoboMate.c ****     turnOffLEDs();
 152:LEDRoboMate.c **** }
 153:LEDRoboMate.c **** 
 154:LEDRoboMate.c **** void initLED()
 155:LEDRoboMate.c **** {
ARM GAS  C:\Users\Simon\AppData\Local\Temp\ccpjuKrO.s 			page 11


 156:LEDRoboMate.c ****     isr_PWM_StartEx(PWM_ISR_handler);
 157:LEDRoboMate.c ****     turnOffLEDs();
 158:LEDRoboMate.c **** }
 159:LEDRoboMate.c **** 
 160:LEDRoboMate.c **** void turnOffLEDs()
 161:LEDRoboMate.c **** {
 388              		.loc 1 161 0
 389              		.cfi_startproc
 390              		@ args = 0, pretend = 0, frame = 64
 391              		@ frame_needed = 0, uses_anonymous_args = 0
 392 0000 00B5     		push	{lr}
 393              		.cfi_def_cfa_offset 4
 394              		.cfi_offset 14, -4
 395 0002 91B0     		sub	sp, sp, #68
 396              		.cfi_def_cfa_offset 72
 162:LEDRoboMate.c ****     uint8_t offArray[64] = {0};
 397              		.loc 1 162 0
 398 0004 4022     		movs	r2, #64
 399 0006 0021     		movs	r1, #0
 400 0008 6846     		mov	r0, sp
 401 000a FFF7FEFF 		bl	memset
 402              	.LVL23:
 163:LEDRoboMate.c ****     
 164:LEDRoboMate.c ****     setLEDs(offArray);
 403              		.loc 1 164 0
 404 000e 6846     		mov	r0, sp
 405 0010 FFF7FEFF 		bl	setLEDs
 406              	.LVL24:
 165:LEDRoboMate.c **** }
 407              		.loc 1 165 0
 408 0014 11B0     		add	sp, sp, #68
 409              		.cfi_def_cfa_offset 4
 410              		@ sp needed
 411 0016 5DF804FB 		ldr	pc, [sp], #4
 412              		.cfi_endproc
 413              	.LFE69:
 414              		.size	turnOffLEDs, .-turnOffLEDs
 415 001a 00BF     		.section	.text.moveAcceptedLED,"ax",%progbits
 416              		.align	2
 417              		.global	moveAcceptedLED
 418              		.thumb
 419              		.thumb_func
 420              		.type	moveAcceptedLED, %function
 421              	moveAcceptedLED:
 422              	.LFB67:
 132:LEDRoboMate.c ****     end = 1;
 423              		.loc 1 132 0
 424              		.cfi_startproc
 425              		@ args = 0, pretend = 0, frame = 0
 426              		@ frame_needed = 0, uses_anonymous_args = 0
 427              	.LVL25:
 428 0000 38B5     		push	{r3, r4, r5, lr}
 429              		.cfi_def_cfa_offset 16
 430              		.cfi_offset 3, -16
 431              		.cfi_offset 4, -12
 432              		.cfi_offset 5, -8
 433              		.cfi_offset 14, -4
ARM GAS  C:\Users\Simon\AppData\Local\Temp\ccpjuKrO.s 			page 12


 133:LEDRoboMate.c ****     for (uint8_t i = 0; i < 64; i++)
 434              		.loc 1 133 0
 435 0002 0122     		movs	r2, #1
 436 0004 124B     		ldr	r3, .L40
 437 0006 1A60     		str	r2, [r3]
 438              	.LVL26:
 439              	.LBB5:
 134:LEDRoboMate.c ****     {
 440              		.loc 1 134 0
 441 0008 0023     		movs	r3, #0
 442 000a 15E0     		b	.L36
 443              	.LVL27:
 444              	.L38:
 136:LEDRoboMate.c ****         ledData[i * 3 + 1] = 0;          //Rød  
 445              		.loc 1 136 0
 446 000c 03EB4302 		add	r2, r3, r3, lsl #1
 447 0010 1049     		ldr	r1, .L40+4
 448 0012 0024     		movs	r4, #0
 449 0014 8C54     		strb	r4, [r1, r2]
 137:LEDRoboMate.c ****         ledData[i * 3 + 2] = 0;          //Blå
 450              		.loc 1 137 0
 451 0016 551C     		adds	r5, r2, #1
 452 0018 4C55     		strb	r4, [r1, r5]
 138:LEDRoboMate.c ****         if(i == ledNr)
 453              		.loc 1 138 0
 454 001a 0232     		adds	r2, r2, #2
 455 001c 8C54     		strb	r4, [r1, r2]
 139:LEDRoboMate.c ****         {
 456              		.loc 1 139 0
 457 001e 8342     		cmp	r3, r0
 458 0020 08D1     		bne	.L37
 141:LEDRoboMate.c ****             ledData[ledNr * 3 + 1] = 0;                 //Rød  
 459              		.loc 1 141 0
 460 0022 00EB4002 		add	r2, r0, r0, lsl #1
 461 0026 6424     		movs	r4, #100
 462 0028 8C54     		strb	r4, [r1, r2]
 142:LEDRoboMate.c ****             ledData[ledNr * 3 + 2] = 0;                 //Blå
 463              		.loc 1 142 0
 464 002a 551C     		adds	r5, r2, #1
 465 002c 0024     		movs	r4, #0
 466 002e 4C55     		strb	r4, [r1, r5]
 143:LEDRoboMate.c ****         }
 467              		.loc 1 143 0
 468 0030 0232     		adds	r2, r2, #2
 469 0032 8C54     		strb	r4, [r1, r2]
 470              	.L37:
 134:LEDRoboMate.c ****     {
 471              		.loc 1 134 0 discriminator 2
 472 0034 0133     		adds	r3, r3, #1
 473              	.LVL28:
 474 0036 DBB2     		uxtb	r3, r3
 475              	.LVL29:
 476              	.L36:
 134:LEDRoboMate.c ****     {
 477              		.loc 1 134 0 is_stmt 0 discriminator 1
 478 0038 3F2B     		cmp	r3, #63
 479 003a E7D9     		bls	.L38
ARM GAS  C:\Users\Simon\AppData\Local\Temp\ccpjuKrO.s 			page 13


 480              	.LBE5:
 147:LEDRoboMate.c ****     
 481              		.loc 1 147 0 is_stmt 1
 482 003c FFF7FEFF 		bl	pwmLedInterrupt
 483              	.LVL30:
 149:LEDRoboMate.c ****     
 484              		.loc 1 149 0
 485 0040 4FF4FA60 		mov	r0, #2000
 486 0044 FFF7FEFF 		bl	CyDelay
 487              	.LVL31:
 151:LEDRoboMate.c **** }
 488              		.loc 1 151 0
 489 0048 FFF7FEFF 		bl	turnOffLEDs
 490              	.LVL32:
 491 004c 38BD     		pop	{r3, r4, r5, pc}
 492              	.L41:
 493 004e 00BF     		.align	2
 494              	.L40:
 495 0050 00000000 		.word	end
 496 0054 00000000 		.word	ledData
 497              		.cfi_endproc
 498              	.LFE67:
 499              		.size	moveAcceptedLED, .-moveAcceptedLED
 500              		.section	.text.initLED,"ax",%progbits
 501              		.align	2
 502              		.global	initLED
 503              		.thumb
 504              		.thumb_func
 505              		.type	initLED, %function
 506              	initLED:
 507              	.LFB68:
 155:LEDRoboMate.c ****     isr_PWM_StartEx(PWM_ISR_handler);
 508              		.loc 1 155 0
 509              		.cfi_startproc
 510              		@ args = 0, pretend = 0, frame = 0
 511              		@ frame_needed = 0, uses_anonymous_args = 0
 512 0000 08B5     		push	{r3, lr}
 513              		.cfi_def_cfa_offset 8
 514              		.cfi_offset 3, -8
 515              		.cfi_offset 14, -4
 156:LEDRoboMate.c ****     turnOffLEDs();
 516              		.loc 1 156 0
 517 0002 0348     		ldr	r0, .L44
 518 0004 FFF7FEFF 		bl	isr_PWM_StartEx
 519              	.LVL33:
 157:LEDRoboMate.c **** }
 520              		.loc 1 157 0
 521 0008 FFF7FEFF 		bl	turnOffLEDs
 522              	.LVL34:
 523 000c 08BD     		pop	{r3, pc}
 524              	.L45:
 525 000e 00BF     		.align	2
 526              	.L44:
 527 0010 00000000 		.word	PWM_ISR_handler
 528              		.cfi_endproc
 529              	.LFE68:
 530              		.size	initLED, .-initLED
ARM GAS  C:\Users\Simon\AppData\Local\Temp\ccpjuKrO.s 			page 14


 531              		.section	.text.LEDtest,"ax",%progbits
 532              		.align	2
 533              		.global	LEDtest
 534              		.thumb
 535              		.thumb_func
 536              		.type	LEDtest, %function
 537              	LEDtest:
 538              	.LFB70:
 166:LEDRoboMate.c **** 
 167:LEDRoboMate.c **** 
 168:LEDRoboMate.c **** void LEDtest()
 169:LEDRoboMate.c **** {
 539              		.loc 1 169 0
 540              		.cfi_startproc
 541              		@ args = 0, pretend = 0, frame = 192
 542              		@ frame_needed = 0, uses_anonymous_args = 0
 543 0000 00B5     		push	{lr}
 544              		.cfi_def_cfa_offset 4
 545              		.cfi_offset 14, -4
 546 0002 B1B0     		sub	sp, sp, #196
 547              		.cfi_def_cfa_offset 200
 548              	.LVL35:
 549              	.LBB6:
 170:LEDRoboMate.c ****     uint8_t array [SIZE * 3];
 171:LEDRoboMate.c ****     
 172:LEDRoboMate.c ****     //Sluk / Tænd alle Led'er
 173:LEDRoboMate.c ****     for(int i = 0; i < SIZE ; i++)
 550              		.loc 1 173 0
 551 0004 0022     		movs	r2, #0
 552 0006 11E0     		b	.L47
 553              	.LVL36:
 554              	.L48:
 174:LEDRoboMate.c ****     {
 175:LEDRoboMate.c ****      array[i * 3] = 0;
 555              		.loc 1 175 0 discriminator 3
 556 0008 02EB4203 		add	r3, r2, r2, lsl #1
 557 000c 30A9     		add	r1, sp, #192
 558 000e C818     		adds	r0, r1, r3
 559 0010 0021     		movs	r1, #0
 560 0012 00F8C01C 		strb	r1, [r0, #-192]
 176:LEDRoboMate.c ****      array[i * 3 + 1] = 0;
 561              		.loc 1 176 0 discriminator 3
 562 0016 581C     		adds	r0, r3, #1
 563 0018 0DF1C00E 		add	lr, sp, #192
 564 001c 7044     		add	r0, r0, lr
 565 001e 00F8C01C 		strb	r1, [r0, #-192]
 177:LEDRoboMate.c ****      array[i * 3 + 2] = 0;
 566              		.loc 1 177 0 discriminator 3
 567 0022 0233     		adds	r3, r3, #2
 568 0024 7344     		add	r3, r3, lr
 569 0026 03F8C01C 		strb	r1, [r3, #-192]
 173:LEDRoboMate.c ****     {
 570              		.loc 1 173 0 discriminator 3
 571 002a 0132     		adds	r2, r2, #1
 572              	.LVL37:
 573              	.L47:
 173:LEDRoboMate.c ****     {
ARM GAS  C:\Users\Simon\AppData\Local\Temp\ccpjuKrO.s 			page 15


 574              		.loc 1 173 0 is_stmt 0 discriminator 1
 575 002c 3F2A     		cmp	r2, #63
 576 002e EBDD     		ble	.L48
 577              	.LVL38:
 578              	.LBE6:
 178:LEDRoboMate.c ****     }
 179:LEDRoboMate.c ****     
 180:LEDRoboMate.c ****     /*     Array:
 181:LEDRoboMate.c **** 
 182:LEDRoboMate.c ****                   Byte1 Byte2 Byte3               
 183:LEDRoboMate.c **** 
 184:LEDRoboMate.c ****         Led 1    [[Grøn][Rød][Blå]]
 185:LEDRoboMate.c ****         Led 2    [[Grøn][Rød][Blå]]
 186:LEDRoboMate.c ****         ...      [...             ]
 187:LEDRoboMate.c ****         Led 64   [[Grøn][Rød][Blå]]
 188:LEDRoboMate.c ****     */
 189:LEDRoboMate.c ****     
 190:LEDRoboMate.c ****     //Tænd en LED//
 191:LEDRoboMate.c ****     
 192:LEDRoboMate.c ****     //Vælg LED nr//
 193:LEDRoboMate.c ****     int ledNr = 10;  
 194:LEDRoboMate.c ****     
 195:LEDRoboMate.c ****     //Vælg Farve//
 196:LEDRoboMate.c ****     array[ledNr * 3]     = 0;       //Grøn
 579              		.loc 1 196 0 is_stmt 1
 580 0030 0023     		movs	r3, #0
 581 0032 8DF81E30 		strb	r3, [sp, #30]
 197:LEDRoboMate.c ****     array[ledNr * 3 + 1] = 0;     //Rød
 582              		.loc 1 197 0
 583 0036 8DF81F30 		strb	r3, [sp, #31]
 198:LEDRoboMate.c ****     array[ledNr * 3 + 2] = 255;     //Blå
 584              		.loc 1 198 0
 585 003a FF23     		movs	r3, #255
 586 003c 8DF82030 		strb	r3, [sp, #32]
 199:LEDRoboMate.c ****     
 200:LEDRoboMate.c ****     
 201:LEDRoboMate.c ****     setLEDs(array);
 587              		.loc 1 201 0
 588 0040 6846     		mov	r0, sp
 589 0042 FFF7FEFF 		bl	setLEDs
 590              	.LVL39:
 202:LEDRoboMate.c ****     }...
 591              		.loc 1 202 0
 592 0046 31B0     		add	sp, sp, #196
 593              		.cfi_def_cfa_offset 4
 594              		@ sp needed
 595 0048 5DF804FB 		ldr	pc, [sp], #4
 596              		.cfi_endproc
 597              	.LFE70:
 598              		.size	LEDtest, .-LEDtest
 599              		.comm	ledData,192,4
 600              		.comm	end,4,4
 601              		.global	byteIndex
 602              		.global	bitIndex
 603              		.comm	ledArray,64,4
 604              		.comm	deadLiftPos,1,1
 605              		.comm	deadPieceLifted,1,1
ARM GAS  C:\Users\Simon\AppData\Local\Temp\ccpjuKrO.s 			page 16


 606              		.comm	pieceLiftPos,1,1
 607              		.comm	pieceLifted,1,1
 608              		.comm	newPos,1,1
 609              		.comm	squareReg,64,4
 610              		.comm	lastSquareReg,64,4
 611              		.comm	legalMoves,64,4
 612              		.comm	startChar,1,1
 613              		.comm	stepCase,4,4
 614              		.comm	currentSquare,4,4
 615              		.data
 616              		.set	.LANCHOR1,. + 0
 617              		.type	bitIndex, %object
 618              		.size	bitIndex, 1
 619              	bitIndex:
 620 0000 07       		.byte	7
 621              		.bss
 622              		.align	1
 623              		.set	.LANCHOR0,. + 0
 624              		.type	byteIndex, %object
 625              		.size	byteIndex, 2
 626              	byteIndex:
 627 0000 0000     		.space	2
 628              		.text
 629              	.Letext0:
 630              		.file 2 "c:\\program files (x86)\\cypress\\psoc creator\\4.4\\psoc creator\\import\\gnu\\arm\\5.4.
 631              		.file 3 "c:\\program files (x86)\\cypress\\psoc creator\\4.4\\psoc creator\\import\\gnu\\arm\\5.4.
 632              		.file 4 "Generated_Source\\PSoC5/core_cm3.h"
 633              		.file 5 "XYPlotter.h"
 634              		.file 6 "UART.h"
 635              		.file 7 "Sensor.h"
 636              		.file 8 "LEDRoboMate.h"
 637              		.file 9 "Generated_Source\\PSoC5/PWM.h"
 638              		.file 10 "Generated_Source\\PSoC5/Control_Reg_1.h"
 639              		.file 11 "Generated_Source\\PSoC5/CyLib.h"
 640              		.file 12 "Generated_Source\\PSoC5/isr_PWM.h"