ARM GAS  C:\Users\Simon\AppData\Local\Temp\ccCSvba6.s 			page 1


   1              		.syntax unified
   2              		.cpu cortex-m3
   3              		.fpu softvfp
   4              		.eabi_attribute 20, 1
   5              		.eabi_attribute 21, 1
   6              		.eabi_attribute 23, 3
   7              		.eabi_attribute 24, 1
   8              		.eabi_attribute 25, 1
   9              		.eabi_attribute 26, 1
  10              		.eabi_attribute 30, 1
  11              		.eabi_attribute 34, 1
  12              		.eabi_attribute 18, 4
  13              		.thumb
  14              		.syntax unified
  15              		.file	"Sensor.c"
  16              		.text
  17              	.Ltext0:
  18              		.cfi_sections	.debug_frame
  19              		.section	.text.sensorPrintTest,"ax",%progbits
  20              		.align	2
  21              		.global	sensorPrintTest
  22              		.thumb
  23              		.thumb_func
  24              		.type	sensorPrintTest, %function
  25              	sensorPrintTest:
  26              	.LFB65:
  27              		.file 1 "Sensor.c"
   1:Sensor.c      **** /* ========================================
   2:Sensor.c      ****  *
   3:Sensor.c      ****  * Copyright YOUR COMPANY, THE YEAR
   4:Sensor.c      ****  * All Rights Reserved
   5:Sensor.c      ****  * UNPUBLISHED, LICENSED SOFTWARE.
   6:Sensor.c      ****  *
   7:Sensor.c      ****  * CONFIDENTIAL AND PROPRIETARY INFORMATION
   8:Sensor.c      ****  * WHICH IS THE PROPERTY OF your company.
   9:Sensor.c      ****  *
  10:Sensor.c      ****  * ========================================
  11:Sensor.c      **** */
  12:Sensor.c      **** 
  13:Sensor.c      **** #include "Sensor.h"
  14:Sensor.c      **** 
  15:Sensor.c      **** 
  16:Sensor.c      **** void sensorScan()
  17:Sensor.c      **** {
  18:Sensor.c      ****     sensorReset();
  19:Sensor.c      ****     for (int i = 0; i < 64; i++) 
  20:Sensor.c      ****     {
  21:Sensor.c      ****         if(sensorSignal_Read()==1)
  22:Sensor.c      ****         {
  23:Sensor.c      ****             CyDelayUs(scan_validation_delay_us);
  24:Sensor.c      ****             if(sensorSignal_Read()==1)
  25:Sensor.c      ****             {
  26:Sensor.c      ****                 squareReg[i] = sensorSignal_Read(); //Læs sensorSignal for plads i på skakbrætte
  27:Sensor.c      ****             }
  28:Sensor.c      ****         }
  29:Sensor.c      ****         else if(sensorSignal_Read()==0 )
  30:Sensor.c      ****         {
ARM GAS  C:\Users\Simon\AppData\Local\Temp\ccCSvba6.s 			page 2


  31:Sensor.c      ****             CyDelayUs(scan_validation_delay_us);
  32:Sensor.c      ****             if(sensorSignal_Read()==0)
  33:Sensor.c      ****             {
  34:Sensor.c      ****                 squareReg[i] = sensorSignal_Read(); //Læs sensorSignal for plads i på skakbrætte
  35:Sensor.c      ****             }
  36:Sensor.c      ****         }   
  37:Sensor.c      ****         
  38:Sensor.c      ****         if(i<63)
  39:Sensor.c      ****         {
  40:Sensor.c      ****             sensorClk_Write(1); //Clock høj
  41:Sensor.c      ****             CyDelayUs(sensor_Clk_delay_us); //Clock Delay
  42:Sensor.c      ****             sensorClk_Write(0); //Clock lav
  43:Sensor.c      ****             CyDelayUs(sensor_Clk_delay_us);
  44:Sensor.c      ****         }
  45:Sensor.c      ****     }
  46:Sensor.c      **** }
  47:Sensor.c      **** 
  48:Sensor.c      **** 
  49:Sensor.c      **** void sensorPrintTest()
  50:Sensor.c      **** {
  28              		.loc 1 50 0
  29              		.cfi_startproc
  30              		@ args = 0, pretend = 0, frame = 0
  31              		@ frame_needed = 0, uses_anonymous_args = 0
  32 0000 2DE9F047 		push	{r4, r5, r6, r7, r8, r9, r10, lr}
  33              		.cfi_def_cfa_offset 32
  34              		.cfi_offset 4, -32
  35              		.cfi_offset 5, -28
  36              		.cfi_offset 6, -24
  37              		.cfi_offset 7, -20
  38              		.cfi_offset 8, -16
  39              		.cfi_offset 9, -12
  40              		.cfi_offset 10, -8
  41              		.cfi_offset 14, -4
  42              	.LVL0:
  43              	.LBB2:
  51:Sensor.c      ****     //Her bruges fremgangsmåden fra UARTArrayPrintTest() til at udskrive arrayet på UART
  52:Sensor.c      ****     uint8_t row1=0, row2=0, row3=0, row4=0, 
  53:Sensor.c      ****             row5=0, row6=0, row7=0, row8=0;
  54:Sensor.c      ****     
  55:Sensor.c      ****     for(int i = 0; i < 8; i++) {
  44              		.loc 1 55 0
  45 0004 0023     		movs	r3, #0
  46              	.LBE2:
  53:Sensor.c      ****     
  47              		.loc 1 53 0
  48 0006 1C46     		mov	r4, r3
  49 0008 1D46     		mov	r5, r3
  50 000a 1E46     		mov	r6, r3
  51 000c 1F46     		mov	r7, r3
  52:Sensor.c      ****             row5=0, row6=0, row7=0, row8=0;
  52              		.loc 1 52 0
  53 000e 9846     		mov	r8, r3
  54 0010 9946     		mov	r9, r3
  55 0012 9A46     		mov	r10, r3
  56 0014 1846     		mov	r0, r3
  57              	.LBB3:
ARM GAS  C:\Users\Simon\AppData\Local\Temp\ccCSvba6.s 			page 3


  58              		.loc 1 55 0
  59 0016 4BE0     		b	.L2
  60              	.LVL1:
  61              	.L3:
  56:Sensor.c      ****         row1 |= squareReg[i] << (7 - i);
  62              		.loc 1 56 0 discriminator 3
  63 0018 3549     		ldr	r1, .L7
  64 001a 11F803E0 		ldrb	lr, [r1, r3]	@ zero_extendqisi2
  65 001e C3F10702 		rsb	r2, r3, #7
  66 0022 0EFA02FE 		lsl	lr, lr, r2
  67 0026 4EEA0000 		orr	r0, lr, r0
  68              	.LVL2:
  69 002a C0B2     		uxtb	r0, r0
  70              	.LVL3:
  57:Sensor.c      ****         row2 |= squareReg[i + 8] << (7 - i);
  71              		.loc 1 57 0 discriminator 3
  72 002c 03F1080E 		add	lr, r3, #8
  73 0030 11F80EE0 		ldrb	lr, [r1, lr]	@ zero_extendqisi2
  74 0034 0EFA02FE 		lsl	lr, lr, r2
  75 0038 4EEA0A0A 		orr	r10, lr, r10
  76              	.LVL4:
  77 003c 5FFA8AFA 		uxtb	r10, r10
  78              	.LVL5:
  58:Sensor.c      ****         row3 |= squareReg[i + 16] << (7 - i);
  79              		.loc 1 58 0 discriminator 3
  80 0040 03F1100E 		add	lr, r3, #16
  81 0044 11F80EE0 		ldrb	lr, [r1, lr]	@ zero_extendqisi2
  82 0048 0EFA02FE 		lsl	lr, lr, r2
  83 004c 4EEA0909 		orr	r9, lr, r9
  84              	.LVL6:
  85 0050 5FFA89F9 		uxtb	r9, r9
  86              	.LVL7:
  59:Sensor.c      ****         row4 |= squareReg[i + 24] << (7 - i);
  87              		.loc 1 59 0 discriminator 3
  88 0054 03F1180E 		add	lr, r3, #24
  89 0058 11F80EE0 		ldrb	lr, [r1, lr]	@ zero_extendqisi2
  90 005c 0EFA02FE 		lsl	lr, lr, r2
  91 0060 4EEA0808 		orr	r8, lr, r8
  92              	.LVL8:
  93 0064 5FFA88F8 		uxtb	r8, r8
  94              	.LVL9:
  60:Sensor.c      ****         row5 |= squareReg[i + 32] << (7 - i);
  95              		.loc 1 60 0 discriminator 3
  96 0068 03F1200E 		add	lr, r3, #32
  97 006c 11F80EE0 		ldrb	lr, [r1, lr]	@ zero_extendqisi2
  98 0070 0EFA02FE 		lsl	lr, lr, r2
  99 0074 4EEA0707 		orr	r7, lr, r7
 100              	.LVL10:
 101 0078 FFB2     		uxtb	r7, r7
 102              	.LVL11:
  61:Sensor.c      ****         row6 |= squareReg[i + 40] << (7 - i);
 103              		.loc 1 61 0 discriminator 3
 104 007a 03F1280E 		add	lr, r3, #40
 105 007e 11F80EE0 		ldrb	lr, [r1, lr]	@ zero_extendqisi2
 106 0082 0EFA02FE 		lsl	lr, lr, r2
 107 0086 4EEA0606 		orr	r6, lr, r6
 108              	.LVL12:
ARM GAS  C:\Users\Simon\AppData\Local\Temp\ccCSvba6.s 			page 4


 109 008a F6B2     		uxtb	r6, r6
 110              	.LVL13:
  62:Sensor.c      ****         row7 |= squareReg[i + 48] << (7 - i);
 111              		.loc 1 62 0 discriminator 3
 112 008c 03F1300E 		add	lr, r3, #48
 113 0090 11F80EE0 		ldrb	lr, [r1, lr]	@ zero_extendqisi2
 114 0094 0EFA02FE 		lsl	lr, lr, r2
 115 0098 4EEA0505 		orr	r5, lr, r5
 116              	.LVL14:
 117 009c EDB2     		uxtb	r5, r5
 118              	.LVL15:
  63:Sensor.c      ****         row8 |= squareReg[i + 56] << (7 - i);
 119              		.loc 1 63 0 discriminator 3
 120 009e 03F1380E 		add	lr, r3, #56
 121 00a2 11F80E10 		ldrb	r1, [r1, lr]	@ zero_extendqisi2
 122 00a6 01FA02F2 		lsl	r2, r1, r2
 123 00aa 1443     		orrs	r4, r4, r2
 124              	.LVL16:
 125 00ac E4B2     		uxtb	r4, r4
 126              	.LVL17:
  55:Sensor.c      ****         row1 |= squareReg[i] << (7 - i);
 127              		.loc 1 55 0 discriminator 3
 128 00ae 0133     		adds	r3, r3, #1
 129              	.LVL18:
 130              	.L2:
  55:Sensor.c      ****         row1 |= squareReg[i] << (7 - i);
 131              		.loc 1 55 0 is_stmt 0 discriminator 1
 132 00b0 072B     		cmp	r3, #7
 133 00b2 B1DD     		ble	.L3
 134 00b4 0023     		movs	r3, #0
 135              	.LVL19:
 136 00b6 00E0     		b	.L4
 137              	.LVL20:
 138              	.L5:
 139              	.LBE3:
 140              	.LBB4:
  64:Sensor.c      ****     }
  65:Sensor.c      ****     
  66:Sensor.c      ****     for(int i = 0; i < 64; i++)
 141              		.loc 1 66 0 is_stmt 1 discriminator 3
 142 00b8 0133     		adds	r3, r3, #1
 143              	.LVL21:
 144              	.L4:
 145              		.loc 1 66 0 is_stmt 0 discriminator 1
 146 00ba 3F2B     		cmp	r3, #63
 147 00bc FCDD     		ble	.L5
 148              	.LBE4:
  67:Sensor.c      ****     {
  68:Sensor.c      ****         // Print Arrayet som ascii art på UART
  69:Sensor.c      ****     }
  70:Sensor.c      **** 
  71:Sensor.c      ****     //Echo back modtagne bytes - uden lille L(startChar)
  72:Sensor.c      ****     UART_1_WriteTxData(row1);
 149              		.loc 1 72 0 is_stmt 1
 150 00be FFF7FEFF 		bl	UART_1_WriteTxData
 151              	.LVL22:
  73:Sensor.c      ****     UART_1_WriteTxData(row2);
ARM GAS  C:\Users\Simon\AppData\Local\Temp\ccCSvba6.s 			page 5


 152              		.loc 1 73 0
 153 00c2 5046     		mov	r0, r10
 154 00c4 FFF7FEFF 		bl	UART_1_WriteTxData
 155              	.LVL23:
  74:Sensor.c      ****     UART_1_WriteTxData(row3);
 156              		.loc 1 74 0
 157 00c8 4846     		mov	r0, r9
 158 00ca FFF7FEFF 		bl	UART_1_WriteTxData
 159              	.LVL24:
  75:Sensor.c      ****     UART_1_WriteTxData(row4);
 160              		.loc 1 75 0
 161 00ce 4046     		mov	r0, r8
 162 00d0 FFF7FEFF 		bl	UART_1_WriteTxData
 163              	.LVL25:
  76:Sensor.c      ****     UART_1_WriteTxData(row5);
 164              		.loc 1 76 0
 165 00d4 3846     		mov	r0, r7
 166 00d6 FFF7FEFF 		bl	UART_1_WriteTxData
 167              	.LVL26:
  77:Sensor.c      ****     UART_1_WriteTxData(row6);
 168              		.loc 1 77 0
 169 00da 3046     		mov	r0, r6
 170 00dc FFF7FEFF 		bl	UART_1_WriteTxData
 171              	.LVL27:
  78:Sensor.c      ****     UART_1_WriteTxData(row7);
 172              		.loc 1 78 0
 173 00e0 2846     		mov	r0, r5
 174 00e2 FFF7FEFF 		bl	UART_1_WriteTxData
 175              	.LVL28:
  79:Sensor.c      ****     UART_1_WriteTxData(row8);
 176              		.loc 1 79 0
 177 00e6 2046     		mov	r0, r4
 178 00e8 FFF7FEFF 		bl	UART_1_WriteTxData
 179              	.LVL29:
 180 00ec BDE8F087 		pop	{r4, r5, r6, r7, r8, r9, r10, pc}
 181              	.LVL30:
 182              	.L8:
 183              		.align	2
 184              	.L7:
 185 00f0 00000000 		.word	squareReg
 186              		.cfi_endproc
 187              	.LFE65:
 188              		.size	sensorPrintTest, .-sensorPrintTest
 189              		.section	.text.updateLastSquareReg,"ax",%progbits
 190              		.align	2
 191              		.global	updateLastSquareReg
 192              		.thumb
 193              		.thumb_func
 194              		.type	updateLastSquareReg, %function
 195              	updateLastSquareReg:
 196              	.LFB67:
  80:Sensor.c      **** }
  81:Sensor.c      **** 
  82:Sensor.c      **** 
  83:Sensor.c      **** void initSensor()
  84:Sensor.c      **** {
  85:Sensor.c      ****     sensorReset();
ARM GAS  C:\Users\Simon\AppData\Local\Temp\ccCSvba6.s 			page 6


  86:Sensor.c      ****     sensorScan();
  87:Sensor.c      ****     updateLastSquareReg();
  88:Sensor.c      ****     newPos = -1; liftPos = -1; deadLiftPos = -1; //Nulstil positioner
  89:Sensor.c      **** }
  90:Sensor.c      **** 
  91:Sensor.c      **** void updateLastSquareReg()
  92:Sensor.c      **** {
 197              		.loc 1 92 0
 198              		.cfi_startproc
 199              		@ args = 0, pretend = 0, frame = 0
 200              		@ frame_needed = 0, uses_anonymous_args = 0
 201              		@ link register save eliminated.
 202              	.LVL31:
 203              	.LBB5:
  93:Sensor.c      ****     for(int i = 0; i < 64; i++)
 204              		.loc 1 93 0
 205 0000 0023     		movs	r3, #0
 206 0002 04E0     		b	.L10
 207              	.LVL32:
 208              	.L11:
  94:Sensor.c      ****     {
  95:Sensor.c      ****         lastSquareReg[i] = squareReg[i]; // loader seneste squareReg over i lastSquareReg
 209              		.loc 1 95 0 discriminator 3
 210 0004 034A     		ldr	r2, .L12
 211 0006 D15C     		ldrb	r1, [r2, r3]	@ zero_extendqisi2
 212 0008 034A     		ldr	r2, .L12+4
 213 000a D154     		strb	r1, [r2, r3]
  93:Sensor.c      ****     for(int i = 0; i < 64; i++)
 214              		.loc 1 93 0 discriminator 3
 215 000c 0133     		adds	r3, r3, #1
 216              	.LVL33:
 217              	.L10:
  93:Sensor.c      ****     for(int i = 0; i < 64; i++)
 218              		.loc 1 93 0 is_stmt 0 discriminator 1
 219 000e 3F2B     		cmp	r3, #63
 220 0010 F8DD     		ble	.L11
 221              	.LBE5:
  96:Sensor.c      ****     }
  97:Sensor.c      **** }
 222              		.loc 1 97 0 is_stmt 1
 223 0012 7047     		bx	lr
 224              	.L13:
 225              		.align	2
 226              	.L12:
 227 0014 00000000 		.word	squareReg
 228 0018 00000000 		.word	lastSquareReg
 229              		.cfi_endproc
 230              	.LFE67:
 231              		.size	updateLastSquareReg, .-updateLastSquareReg
 232              		.section	.text.sensorReset,"ax",%progbits
 233              		.align	2
 234              		.global	sensorReset
 235              		.thumb
 236              		.thumb_func
 237              		.type	sensorReset, %function
 238              	sensorReset:
 239              	.LFB72:
ARM GAS  C:\Users\Simon\AppData\Local\Temp\ccCSvba6.s 			page 7


  98:Sensor.c      **** 
  99:Sensor.c      **** uint8_t scan4PieceLift()
 100:Sensor.c      **** {
 101:Sensor.c      ****     updateLastSquareReg();
 102:Sensor.c      ****     
 103:Sensor.c      ****     sensorScan(); // Opdaterer squareReg
 104:Sensor.c      ****     
 105:Sensor.c      ****     for(int i = 0; i < 64; i++)
 106:Sensor.c      ****     {
 107:Sensor.c      ****         if(lastSquareReg[i] == 1 && squareReg[i] == 0)
 108:Sensor.c      ****         {
 109:Sensor.c      ****             CyDelayUs(change_validation_delay_us);
 110:Sensor.c      ****             sensorScan();
 111:Sensor.c      ****             if(lastSquareReg[i] == 1 && squareReg[i] == 0)
 112:Sensor.c      ****             {
 113:Sensor.c      ****                 updateLastSquareReg();
 114:Sensor.c      ****                 liftPos = i; // liftPos sættes til felt nummer i
 115:Sensor.c      ****                 return 1;
 116:Sensor.c      ****             }
 117:Sensor.c      ****         }
 118:Sensor.c      ****     }
 119:Sensor.c      ****     
 120:Sensor.c      ****     liftPos = -1;
 121:Sensor.c      ****     return 0;
 122:Sensor.c      **** }
 123:Sensor.c      **** 
 124:Sensor.c      **** void scanNewPos()
 125:Sensor.c      **** {    
 126:Sensor.c      ****     sensorScan(); // Opdaterer squareReg
 127:Sensor.c      ****     
 128:Sensor.c      ****     for(int i = 0; i < 64; i++)
 129:Sensor.c      ****     {   
 130:Sensor.c      ****         if(lastSquareReg[i] == 0 && squareReg[i] == 1)
 131:Sensor.c      ****         {
 132:Sensor.c      ****             CyDelayUs(change_validation_delay_us);
 133:Sensor.c      ****             sensorScan();
 134:Sensor.c      ****             if(lastSquareReg[i] == 0 && squareReg[i] == 1)
 135:Sensor.c      ****             {
 136:Sensor.c      ****                 newPos = i;
 137:Sensor.c      ****             }
 138:Sensor.c      ****         }
 139:Sensor.c      ****     }
 140:Sensor.c      ****     
 141:Sensor.c      **** }
 142:Sensor.c      **** 
 143:Sensor.c      ****  uint8_t scan4DeadOpp()
 144:Sensor.c      **** {    
 145:Sensor.c      ****     sensorScan(); // Opdaterer squareReg
 146:Sensor.c      ****     
 147:Sensor.c      ****     for(int i = 0; i < 64; i++)
 148:Sensor.c      ****     {
 149:Sensor.c      ****         if(lastSquareReg[i] == 1 && squareReg[i] == 0 && legalMoves[i] == 1 && i != liftPos) // Hvi
 150:Sensor.c      ****         {
 151:Sensor.c      ****             CyDelayUs(change_validation_delay_us);
 152:Sensor.c      ****             sensorScan();
 153:Sensor.c      ****             if(lastSquareReg[i] == 1 && squareReg[i] == 0)
 154:Sensor.c      ****             {
ARM GAS  C:\Users\Simon\AppData\Local\Temp\ccCSvba6.s 			page 8


 155:Sensor.c      ****                 deadLiftPos = i;
 156:Sensor.c      ****                 return 1;
 157:Sensor.c      ****             }
 158:Sensor.c      ****         }
 159:Sensor.c      ****     }
 160:Sensor.c      ****     return 0;
 161:Sensor.c      **** }
 162:Sensor.c      **** 
 163:Sensor.c      **** int8_t newPosLegal()
 164:Sensor.c      **** {
 165:Sensor.c      ****     sensorScan(); // Opdater squareReg
 166:Sensor.c      ****     for(int i = 0; i < 64; i++)
 167:Sensor.c      ****     {
 168:Sensor.c      ****         // Hvis legal              og   hvis der er en brik på feltet og hvis newPos ikke er -1
 169:Sensor.c      ****         if(legalMoves[newPos] == 1 && squareReg[i]==1) 
 170:Sensor.c      ****         {
 171:Sensor.c      ****             return 1;
 172:Sensor.c      ****         }
 173:Sensor.c      ****         if(legalMoves[newPos] == 0 && squareReg[i]==1) //Ulovligt træk
 174:Sensor.c      ****         {
 175:Sensor.c      ****             return -1;
 176:Sensor.c      ****         }
 177:Sensor.c      ****     }
 178:Sensor.c      ****     return 0;
 179:Sensor.c      **** }
 180:Sensor.c      **** 
 181:Sensor.c      **** void sensorReset()
 182:Sensor.c      **** {
 240              		.loc 1 182 0
 241              		.cfi_startproc
 242              		@ args = 0, pretend = 0, frame = 0
 243              		@ frame_needed = 0, uses_anonymous_args = 0
 244 0000 08B5     		push	{r3, lr}
 245              		.cfi_def_cfa_offset 8
 246              		.cfi_offset 3, -8
 247              		.cfi_offset 14, -4
 183:Sensor.c      ****     sensorReset_Write(1); //Reset on
 248              		.loc 1 183 0
 249 0002 0120     		movs	r0, #1
 250 0004 FFF7FEFF 		bl	sensorReset_Write
 251              	.LVL34:
 184:Sensor.c      ****     CyDelay(sensor_Clk_delay_us); //Clock Delay
 252              		.loc 1 184 0
 253 0008 0120     		movs	r0, #1
 254 000a FFF7FEFF 		bl	CyDelay
 255              	.LVL35:
 185:Sensor.c      ****     sensorReset_Write(0); //Reset off
 256              		.loc 1 185 0
 257 000e 0020     		movs	r0, #0
 258 0010 FFF7FEFF 		bl	sensorReset_Write
 259              	.LVL36:
 260 0014 08BD     		pop	{r3, pc}
 261              		.cfi_endproc
 262              	.LFE72:
 263              		.size	sensorReset, .-sensorReset
 264 0016 00BF     		.section	.text.sensorScan,"ax",%progbits
 265              		.align	2
ARM GAS  C:\Users\Simon\AppData\Local\Temp\ccCSvba6.s 			page 9


 266              		.global	sensorScan
 267              		.thumb
 268              		.thumb_func
 269              		.type	sensorScan, %function
 270              	sensorScan:
 271              	.LFB64:
  17:Sensor.c      ****     sensorReset();
 272              		.loc 1 17 0
 273              		.cfi_startproc
 274              		@ args = 0, pretend = 0, frame = 0
 275              		@ frame_needed = 0, uses_anonymous_args = 0
 276 0000 10B5     		push	{r4, lr}
 277              		.cfi_def_cfa_offset 8
 278              		.cfi_offset 4, -8
 279              		.cfi_offset 14, -4
  18:Sensor.c      ****     for (int i = 0; i < 64; i++) 
 280              		.loc 1 18 0
 281 0002 FFF7FEFF 		bl	sensorReset
 282              	.LVL37:
 283              	.LBB6:
  19:Sensor.c      ****     {
 284              		.loc 1 19 0
 285 0006 0024     		movs	r4, #0
 286 0008 2DE0     		b	.L17
 287              	.LVL38:
 288              	.L21:
  21:Sensor.c      ****         {
 289              		.loc 1 21 0
 290 000a FFF7FEFF 		bl	sensorSignal_Read
 291              	.LVL39:
 292 000e 0128     		cmp	r0, #1
 293 0010 0CD1     		bne	.L18
  23:Sensor.c      ****             if(sensorSignal_Read()==1)
 294              		.loc 1 23 0
 295 0012 4FF4FA60 		mov	r0, #2000
 296 0016 FFF7FEFF 		bl	CyDelayUs
 297              	.LVL40:
  24:Sensor.c      ****             {
 298              		.loc 1 24 0
 299 001a FFF7FEFF 		bl	sensorSignal_Read
 300              	.LVL41:
 301 001e 0128     		cmp	r0, #1
 302 0020 12D1     		bne	.L19
  26:Sensor.c      ****             }
 303              		.loc 1 26 0
 304 0022 FFF7FEFF 		bl	sensorSignal_Read
 305              	.LVL42:
 306 0026 114B     		ldr	r3, .L23
 307 0028 1855     		strb	r0, [r3, r4]
 308 002a 0DE0     		b	.L19
 309              	.L18:
  29:Sensor.c      ****         {
 310              		.loc 1 29 0
 311 002c FFF7FEFF 		bl	sensorSignal_Read
 312              	.LVL43:
 313 0030 50B9     		cbnz	r0, .L19
  31:Sensor.c      ****             if(sensorSignal_Read()==0)
ARM GAS  C:\Users\Simon\AppData\Local\Temp\ccCSvba6.s 			page 10


 314              		.loc 1 31 0
 315 0032 4FF4FA60 		mov	r0, #2000
 316 0036 FFF7FEFF 		bl	CyDelayUs
 317              	.LVL44:
  32:Sensor.c      ****             {
 318              		.loc 1 32 0
 319 003a FFF7FEFF 		bl	sensorSignal_Read
 320              	.LVL45:
 321 003e 18B9     		cbnz	r0, .L19
  34:Sensor.c      ****             }
 322              		.loc 1 34 0
 323 0040 FFF7FEFF 		bl	sensorSignal_Read
 324              	.LVL46:
 325 0044 094B     		ldr	r3, .L23
 326 0046 1855     		strb	r0, [r3, r4]
 327              	.L19:
  38:Sensor.c      ****         {
 328              		.loc 1 38 0
 329 0048 3E2C     		cmp	r4, #62
 330 004a 0BDC     		bgt	.L20
  40:Sensor.c      ****             CyDelayUs(sensor_Clk_delay_us); //Clock Delay
 331              		.loc 1 40 0
 332 004c 0120     		movs	r0, #1
 333 004e FFF7FEFF 		bl	sensorClk_Write
 334              	.LVL47:
  41:Sensor.c      ****             sensorClk_Write(0); //Clock lav
 335              		.loc 1 41 0
 336 0052 0120     		movs	r0, #1
 337 0054 FFF7FEFF 		bl	CyDelayUs
 338              	.LVL48:
  42:Sensor.c      ****             CyDelayUs(sensor_Clk_delay_us);
 339              		.loc 1 42 0
 340 0058 0020     		movs	r0, #0
 341 005a FFF7FEFF 		bl	sensorClk_Write
 342              	.LVL49:
  43:Sensor.c      ****         }
 343              		.loc 1 43 0
 344 005e 0120     		movs	r0, #1
 345 0060 FFF7FEFF 		bl	CyDelayUs
 346              	.LVL50:
 347              	.L20:
  19:Sensor.c      ****     {
 348              		.loc 1 19 0 discriminator 2
 349 0064 0134     		adds	r4, r4, #1
 350              	.LVL51:
 351              	.L17:
  19:Sensor.c      ****     {
 352              		.loc 1 19 0 is_stmt 0 discriminator 1
 353 0066 3F2C     		cmp	r4, #63
 354 0068 CFDD     		ble	.L21
 355              	.LBE6:
  46:Sensor.c      **** 
 356              		.loc 1 46 0 is_stmt 1
 357 006a 10BD     		pop	{r4, pc}
 358              	.LVL52:
 359              	.L24:
 360              		.align	2
ARM GAS  C:\Users\Simon\AppData\Local\Temp\ccCSvba6.s 			page 11


 361              	.L23:
 362 006c 00000000 		.word	squareReg
 363              		.cfi_endproc
 364              	.LFE64:
 365              		.size	sensorScan, .-sensorScan
 366              		.section	.text.scan4PieceLift,"ax",%progbits
 367              		.align	2
 368              		.global	scan4PieceLift
 369              		.thumb
 370              		.thumb_func
 371              		.type	scan4PieceLift, %function
 372              	scan4PieceLift:
 373              	.LFB68:
 100:Sensor.c      ****     updateLastSquareReg();
 374              		.loc 1 100 0
 375              		.cfi_startproc
 376              		@ args = 0, pretend = 0, frame = 0
 377              		@ frame_needed = 0, uses_anonymous_args = 0
 378 0000 38B5     		push	{r3, r4, r5, lr}
 379              		.cfi_def_cfa_offset 16
 380              		.cfi_offset 3, -16
 381              		.cfi_offset 4, -12
 382              		.cfi_offset 5, -8
 383              		.cfi_offset 14, -4
 101:Sensor.c      ****     
 384              		.loc 1 101 0
 385 0002 FFF7FEFF 		bl	updateLastSquareReg
 386              	.LVL53:
 103:Sensor.c      ****     
 387              		.loc 1 103 0
 388 0006 FFF7FEFF 		bl	sensorScan
 389              	.LVL54:
 390              	.LBB7:
 105:Sensor.c      ****     {
 391              		.loc 1 105 0
 392 000a 0024     		movs	r4, #0
 393 000c 19E0     		b	.L26
 394              	.LVL55:
 395              	.L29:
 107:Sensor.c      ****         {
 396              		.loc 1 107 0
 397 000e 114B     		ldr	r3, .L31
 398 0010 1B5D     		ldrb	r3, [r3, r4]	@ zero_extendqisi2
 399 0012 012B     		cmp	r3, #1
 400 0014 14D1     		bne	.L27
 107:Sensor.c      ****         {
 401              		.loc 1 107 0 is_stmt 0 discriminator 1
 402 0016 104B     		ldr	r3, .L31+4
 403 0018 1B5D     		ldrb	r3, [r3, r4]	@ zero_extendqisi2
 404 001a 8BB9     		cbnz	r3, .L27
 109:Sensor.c      ****             sensorScan();
 405              		.loc 1 109 0 is_stmt 1
 406 001c 40F6B830 		movw	r0, #3000
 407 0020 FFF7FEFF 		bl	CyDelayUs
 408              	.LVL56:
 110:Sensor.c      ****             if(lastSquareReg[i] == 1 && squareReg[i] == 0)
 409              		.loc 1 110 0
ARM GAS  C:\Users\Simon\AppData\Local\Temp\ccCSvba6.s 			page 12


 410 0024 FFF7FEFF 		bl	sensorScan
 411              	.LVL57:
 111:Sensor.c      ****             {
 412              		.loc 1 111 0
 413 0028 0A4B     		ldr	r3, .L31
 414 002a 1D5D     		ldrb	r5, [r3, r4]	@ zero_extendqisi2
 415 002c 012D     		cmp	r5, #1
 416 002e 07D1     		bne	.L27
 111:Sensor.c      ****             {
 417              		.loc 1 111 0 is_stmt 0 discriminator 1
 418 0030 094B     		ldr	r3, .L31+4
 419 0032 1B5D     		ldrb	r3, [r3, r4]	@ zero_extendqisi2
 420 0034 23B9     		cbnz	r3, .L27
 113:Sensor.c      ****                 liftPos = i; // liftPos sættes til felt nummer i
 421              		.loc 1 113 0 is_stmt 1
 422 0036 FFF7FEFF 		bl	updateLastSquareReg
 423              	.LVL58:
 114:Sensor.c      ****                 return 1;
 424              		.loc 1 114 0
 425 003a 084B     		ldr	r3, .L31+8
 426 003c 1C70     		strb	r4, [r3]
 115:Sensor.c      ****             }
 427              		.loc 1 115 0
 428 003e 06E0     		b	.L28
 429              	.L27:
 105:Sensor.c      ****     {
 430              		.loc 1 105 0 discriminator 2
 431 0040 0134     		adds	r4, r4, #1
 432              	.LVL59:
 433              	.L26:
 105:Sensor.c      ****     {
 434              		.loc 1 105 0 is_stmt 0 discriminator 1
 435 0042 3F2C     		cmp	r4, #63
 436 0044 E3DD     		ble	.L29
 437              	.LBE7:
 120:Sensor.c      ****     return 0;
 438              		.loc 1 120 0 is_stmt 1
 439 0046 FF22     		movs	r2, #255
 440 0048 044B     		ldr	r3, .L31+8
 441 004a 1A70     		strb	r2, [r3]
 121:Sensor.c      **** }
 442              		.loc 1 121 0
 443 004c 0025     		movs	r5, #0
 444              	.L28:
 122:Sensor.c      **** 
 445              		.loc 1 122 0
 446 004e 2846     		mov	r0, r5
 447 0050 38BD     		pop	{r3, r4, r5, pc}
 448              	.LVL60:
 449              	.L32:
 450 0052 00BF     		.align	2
 451              	.L31:
 452 0054 00000000 		.word	lastSquareReg
 453 0058 00000000 		.word	squareReg
 454 005c 00000000 		.word	liftPos
 455              		.cfi_endproc
 456              	.LFE68:
ARM GAS  C:\Users\Simon\AppData\Local\Temp\ccCSvba6.s 			page 13


 457              		.size	scan4PieceLift, .-scan4PieceLift
 458              		.section	.text.scanNewPos,"ax",%progbits
 459              		.align	2
 460              		.global	scanNewPos
 461              		.thumb
 462              		.thumb_func
 463              		.type	scanNewPos, %function
 464              	scanNewPos:
 465              	.LFB69:
 125:Sensor.c      ****     sensorScan(); // Opdaterer squareReg
 466              		.loc 1 125 0
 467              		.cfi_startproc
 468              		@ args = 0, pretend = 0, frame = 0
 469              		@ frame_needed = 0, uses_anonymous_args = 0
 470 0000 10B5     		push	{r4, lr}
 471              		.cfi_def_cfa_offset 8
 472              		.cfi_offset 4, -8
 473              		.cfi_offset 14, -4
 126:Sensor.c      ****     
 474              		.loc 1 126 0
 475 0002 FFF7FEFF 		bl	sensorScan
 476              	.LVL61:
 477              	.LBB8:
 128:Sensor.c      ****     {   
 478              		.loc 1 128 0
 479 0006 0024     		movs	r4, #0
 480 0008 16E0     		b	.L34
 481              	.LVL62:
 482              	.L36:
 130:Sensor.c      ****         {
 483              		.loc 1 130 0
 484 000a 0D4B     		ldr	r3, .L38
 485 000c 1B5D     		ldrb	r3, [r3, r4]	@ zero_extendqisi2
 486 000e 93B9     		cbnz	r3, .L35
 130:Sensor.c      ****         {
 487              		.loc 1 130 0 is_stmt 0 discriminator 1
 488 0010 0C4B     		ldr	r3, .L38+4
 489 0012 1B5D     		ldrb	r3, [r3, r4]	@ zero_extendqisi2
 490 0014 012B     		cmp	r3, #1
 491 0016 0ED1     		bne	.L35
 132:Sensor.c      ****             sensorScan();
 492              		.loc 1 132 0 is_stmt 1
 493 0018 40F6B830 		movw	r0, #3000
 494 001c FFF7FEFF 		bl	CyDelayUs
 495              	.LVL63:
 133:Sensor.c      ****             if(lastSquareReg[i] == 0 && squareReg[i] == 1)
 496              		.loc 1 133 0
 497 0020 FFF7FEFF 		bl	sensorScan
 498              	.LVL64:
 134:Sensor.c      ****             {
 499              		.loc 1 134 0
 500 0024 064B     		ldr	r3, .L38
 501 0026 1B5D     		ldrb	r3, [r3, r4]	@ zero_extendqisi2
 502 0028 2BB9     		cbnz	r3, .L35
 134:Sensor.c      ****             {
 503              		.loc 1 134 0 is_stmt 0 discriminator 1
 504 002a 064B     		ldr	r3, .L38+4
ARM GAS  C:\Users\Simon\AppData\Local\Temp\ccCSvba6.s 			page 14


 505 002c 1B5D     		ldrb	r3, [r3, r4]	@ zero_extendqisi2
 506 002e 012B     		cmp	r3, #1
 507 0030 01D1     		bne	.L35
 136:Sensor.c      ****             }
 508              		.loc 1 136 0 is_stmt 1
 509 0032 054B     		ldr	r3, .L38+8
 510 0034 1C70     		strb	r4, [r3]
 511              	.L35:
 128:Sensor.c      ****     {   
 512              		.loc 1 128 0 discriminator 2
 513 0036 0134     		adds	r4, r4, #1
 514              	.LVL65:
 515              	.L34:
 128:Sensor.c      ****     {   
 516              		.loc 1 128 0 is_stmt 0 discriminator 1
 517 0038 3F2C     		cmp	r4, #63
 518 003a E6DD     		ble	.L36
 519              	.LBE8:
 141:Sensor.c      **** 
 520              		.loc 1 141 0 is_stmt 1
 521 003c 10BD     		pop	{r4, pc}
 522              	.LVL66:
 523              	.L39:
 524 003e 00BF     		.align	2
 525              	.L38:
 526 0040 00000000 		.word	lastSquareReg
 527 0044 00000000 		.word	squareReg
 528 0048 00000000 		.word	newPos
 529              		.cfi_endproc
 530              	.LFE69:
 531              		.size	scanNewPos, .-scanNewPos
 532              		.section	.text.scan4DeadOpp,"ax",%progbits
 533              		.align	2
 534              		.global	scan4DeadOpp
 535              		.thumb
 536              		.thumb_func
 537              		.type	scan4DeadOpp, %function
 538              	scan4DeadOpp:
 539              	.LFB70:
 144:Sensor.c      ****     sensorScan(); // Opdaterer squareReg
 540              		.loc 1 144 0
 541              		.cfi_startproc
 542              		@ args = 0, pretend = 0, frame = 0
 543              		@ frame_needed = 0, uses_anonymous_args = 0
 544 0000 10B5     		push	{r4, lr}
 545              		.cfi_def_cfa_offset 8
 546              		.cfi_offset 4, -8
 547              		.cfi_offset 14, -4
 145:Sensor.c      ****     
 548              		.loc 1 145 0
 549 0002 FFF7FEFF 		bl	sensorScan
 550              	.LVL67:
 551              	.LBB9:
 147:Sensor.c      ****     {
 552              		.loc 1 147 0
 553 0006 0024     		movs	r4, #0
 554 0008 20E0     		b	.L41
ARM GAS  C:\Users\Simon\AppData\Local\Temp\ccCSvba6.s 			page 15


 555              	.LVL68:
 556              	.L44:
 149:Sensor.c      ****         {
 557              		.loc 1 149 0
 558 000a 124B     		ldr	r3, .L46
 559 000c 1B5D     		ldrb	r3, [r3, r4]	@ zero_extendqisi2
 560 000e 012B     		cmp	r3, #1
 561 0010 1BD1     		bne	.L42
 149:Sensor.c      ****         {
 562              		.loc 1 149 0 is_stmt 0 discriminator 1
 563 0012 114B     		ldr	r3, .L46+4
 564 0014 1B5D     		ldrb	r3, [r3, r4]	@ zero_extendqisi2
 565 0016 C3B9     		cbnz	r3, .L42
 149:Sensor.c      ****         {
 566              		.loc 1 149 0 discriminator 2
 567 0018 104B     		ldr	r3, .L46+8
 568 001a 1B5D     		ldrb	r3, [r3, r4]	@ zero_extendqisi2
 569 001c 012B     		cmp	r3, #1
 570 001e 14D1     		bne	.L42
 149:Sensor.c      ****         {
 571              		.loc 1 149 0 discriminator 3
 572 0020 0F4B     		ldr	r3, .L46+12
 573 0022 93F90030 		ldrsb	r3, [r3]
 574 0026 9C42     		cmp	r4, r3
 575 0028 0FD0     		beq	.L42
 151:Sensor.c      ****             sensorScan();
 576              		.loc 1 151 0 is_stmt 1
 577 002a 40F6B830 		movw	r0, #3000
 578 002e FFF7FEFF 		bl	CyDelayUs
 579              	.LVL69:
 152:Sensor.c      ****             if(lastSquareReg[i] == 1 && squareReg[i] == 0)
 580              		.loc 1 152 0
 581 0032 FFF7FEFF 		bl	sensorScan
 582              	.LVL70:
 153:Sensor.c      ****             {
 583              		.loc 1 153 0
 584 0036 074B     		ldr	r3, .L46
 585 0038 185D     		ldrb	r0, [r3, r4]	@ zero_extendqisi2
 586 003a 0128     		cmp	r0, #1
 587 003c 05D1     		bne	.L42
 153:Sensor.c      ****             {
 588              		.loc 1 153 0 is_stmt 0 discriminator 1
 589 003e 064B     		ldr	r3, .L46+4
 590 0040 1B5D     		ldrb	r3, [r3, r4]	@ zero_extendqisi2
 591 0042 13B9     		cbnz	r3, .L42
 155:Sensor.c      ****                 return 1;
 592              		.loc 1 155 0 is_stmt 1
 593 0044 074B     		ldr	r3, .L46+16
 594 0046 1C70     		strb	r4, [r3]
 156:Sensor.c      ****             }
 595              		.loc 1 156 0
 596 0048 10BD     		pop	{r4, pc}
 597              	.LVL71:
 598              	.L42:
 147:Sensor.c      ****     {
 599              		.loc 1 147 0 discriminator 2
 600 004a 0134     		adds	r4, r4, #1
ARM GAS  C:\Users\Simon\AppData\Local\Temp\ccCSvba6.s 			page 16


 601              	.LVL72:
 602              	.L41:
 147:Sensor.c      ****     {
 603              		.loc 1 147 0 is_stmt 0 discriminator 1
 604 004c 3F2C     		cmp	r4, #63
 605 004e DCDD     		ble	.L44
 606              	.LBE9:
 160:Sensor.c      **** }
 607              		.loc 1 160 0 is_stmt 1
 608 0050 0020     		movs	r0, #0
 161:Sensor.c      **** 
 609              		.loc 1 161 0
 610 0052 10BD     		pop	{r4, pc}
 611              	.LVL73:
 612              	.L47:
 613              		.align	2
 614              	.L46:
 615 0054 00000000 		.word	lastSquareReg
 616 0058 00000000 		.word	squareReg
 617 005c 00000000 		.word	legalMoves
 618 0060 00000000 		.word	liftPos
 619 0064 00000000 		.word	deadLiftPos
 620              		.cfi_endproc
 621              	.LFE70:
 622              		.size	scan4DeadOpp, .-scan4DeadOpp
 623              		.section	.text.newPosLegal,"ax",%progbits
 624              		.align	2
 625              		.global	newPosLegal
 626              		.thumb
 627              		.thumb_func
 628              		.type	newPosLegal, %function
 629              	newPosLegal:
 630              	.LFB71:
 164:Sensor.c      ****     sensorScan(); // Opdater squareReg
 631              		.loc 1 164 0
 632              		.cfi_startproc
 633              		@ args = 0, pretend = 0, frame = 0
 634              		@ frame_needed = 0, uses_anonymous_args = 0
 635 0000 08B5     		push	{r3, lr}
 636              		.cfi_def_cfa_offset 8
 637              		.cfi_offset 3, -8
 638              		.cfi_offset 14, -4
 165:Sensor.c      ****     for(int i = 0; i < 64; i++)
 639              		.loc 1 165 0
 640 0002 FFF7FEFF 		bl	sensorScan
 641              	.LVL74:
 642              	.LBB10:
 166:Sensor.c      ****     {
 643              		.loc 1 166 0
 644 0006 0023     		movs	r3, #0
 645 0008 10E0     		b	.L49
 646              	.LVL75:
 647              	.L53:
 169:Sensor.c      ****         {
 648              		.loc 1 169 0
 649 000a 0D4A     		ldr	r2, .L57
 650 000c 92F90020 		ldrsb	r2, [r2]
ARM GAS  C:\Users\Simon\AppData\Local\Temp\ccCSvba6.s 			page 17


 651 0010 0C49     		ldr	r1, .L57+4
 652 0012 8A5C     		ldrb	r2, [r1, r2]	@ zero_extendqisi2
 653 0014 012A     		cmp	r2, #1
 654 0016 03D1     		bne	.L50
 169:Sensor.c      ****         {
 655              		.loc 1 169 0 is_stmt 0 discriminator 1
 656 0018 0B49     		ldr	r1, .L57+8
 657 001a C95C     		ldrb	r1, [r1, r3]	@ zero_extendqisi2
 658 001c 0129     		cmp	r1, #1
 659 001e 09D0     		beq	.L54
 660              	.L50:
 173:Sensor.c      ****         {
 661              		.loc 1 173 0 is_stmt 1
 662 0020 1AB9     		cbnz	r2, .L52
 173:Sensor.c      ****         {
 663              		.loc 1 173 0 is_stmt 0 discriminator 1
 664 0022 094A     		ldr	r2, .L57+8
 665 0024 D25C     		ldrb	r2, [r2, r3]	@ zero_extendqisi2
 666 0026 012A     		cmp	r2, #1
 667 0028 06D0     		beq	.L55
 668              	.L52:
 166:Sensor.c      ****     {
 669              		.loc 1 166 0 is_stmt 1 discriminator 2
 670 002a 0133     		adds	r3, r3, #1
 671              	.LVL76:
 672              	.L49:
 166:Sensor.c      ****     {
 673              		.loc 1 166 0 is_stmt 0 discriminator 1
 674 002c 3F2B     		cmp	r3, #63
 675 002e ECDD     		ble	.L53
 676              	.LBE10:
 178:Sensor.c      **** }
 677              		.loc 1 178 0 is_stmt 1
 678 0030 0020     		movs	r0, #0
 679              	.LBB11:
 680 0032 08BD     		pop	{r3, pc}
 681              	.LVL77:
 682              	.L54:
 171:Sensor.c      ****         }
 683              		.loc 1 171 0
 684 0034 0120     		movs	r0, #1
 685 0036 08BD     		pop	{r3, pc}
 686              	.LVL78:
 687              	.L55:
 175:Sensor.c      ****         }
 688              		.loc 1 175 0
 689 0038 4FF0FF30 		mov	r0, #-1
 690              	.LBE11:
 179:Sensor.c      **** 
 691              		.loc 1 179 0
 692 003c 08BD     		pop	{r3, pc}
 693              	.LVL79:
 694              	.L58:
 695 003e 00BF     		.align	2
 696              	.L57:
 697 0040 00000000 		.word	newPos
 698 0044 00000000 		.word	legalMoves
ARM GAS  C:\Users\Simon\AppData\Local\Temp\ccCSvba6.s 			page 18


 699 0048 00000000 		.word	squareReg
 700              		.cfi_endproc
 701              	.LFE71:
 702              		.size	newPosLegal, .-newPosLegal
 703              		.section	.text.initSensor,"ax",%progbits
 704              		.align	2
 705              		.global	initSensor
 706              		.thumb
 707              		.thumb_func
 708              		.type	initSensor, %function
 709              	initSensor:
 710              	.LFB66:
  84:Sensor.c      ****     sensorReset();
 711              		.loc 1 84 0
 712              		.cfi_startproc
 713              		@ args = 0, pretend = 0, frame = 0
 714              		@ frame_needed = 0, uses_anonymous_args = 0
 715 0000 08B5     		push	{r3, lr}
 716              		.cfi_def_cfa_offset 8
 717              		.cfi_offset 3, -8
 718              		.cfi_offset 14, -4
  85:Sensor.c      ****     sensorScan();
 719              		.loc 1 85 0
 720 0002 FFF7FEFF 		bl	sensorReset
 721              	.LVL80:
  86:Sensor.c      ****     updateLastSquareReg();
 722              		.loc 1 86 0
 723 0006 FFF7FEFF 		bl	sensorScan
 724              	.LVL81:
  87:Sensor.c      ****     newPos = -1; liftPos = -1; deadLiftPos = -1; //Nulstil positioner
 725              		.loc 1 87 0
 726 000a FFF7FEFF 		bl	updateLastSquareReg
 727              	.LVL82:
  88:Sensor.c      **** }
 728              		.loc 1 88 0
 729 000e FF23     		movs	r3, #255
 730 0010 034A     		ldr	r2, .L61
 731 0012 1370     		strb	r3, [r2]
 732 0014 034A     		ldr	r2, .L61+4
 733 0016 1370     		strb	r3, [r2]
 734 0018 034A     		ldr	r2, .L61+8
 735 001a 1370     		strb	r3, [r2]
 736 001c 08BD     		pop	{r3, pc}
 737              	.L62:
 738 001e 00BF     		.align	2
 739              	.L61:
 740 0020 00000000 		.word	newPos
 741 0024 00000000 		.word	liftPos
 742 0028 00000000 		.word	deadLiftPos
 743              		.cfi_endproc
 744              	.LFE66:
 745              		.size	initSensor, .-initSensor
 746              		.comm	deadLiftPos,1,1
 747              		.comm	liftPos,1,1
 748              		.comm	newPos,1,1
 749              		.comm	deadPieceLifted,1,1
 750              		.comm	pieceLifted,1,1
ARM GAS  C:\Users\Simon\AppData\Local\Temp\ccCSvba6.s 			page 19


 751              		.comm	squareReg,64,4
 752              		.comm	lastSquareReg,64,4
 753              		.comm	legalMoves,64,4
 754              		.comm	startChar,1,1
 755              		.comm	end,4,4
 756              		.comm	byteIndex,2,2
 757              		.comm	bitIndex,1,1
 758              		.comm	ledData,192,4
 759              		.comm	ledArray,64,4
 760              		.comm	stepCase,1,1
 761              		.comm	currentSquare,1,1
 762              		.text
 763              	.Letext0:
 764              		.file 2 "c:\\program files (x86)\\cypress\\psoc creator\\4.4\\psoc creator\\import\\gnu\\arm\\5.4.
 765              		.file 3 "c:\\program files (x86)\\cypress\\psoc creator\\4.4\\psoc creator\\import\\gnu\\arm\\5.4.
 766              		.file 4 "Generated_Source\\PSoC5/core_cm3.h"
 767              		.file 5 "XYPlotter.h"
 768              		.file 6 "LedControl.h"
 769              		.file 7 "UART.h"
 770              		.file 8 "Sensor.h"
 771              		.file 9 "Generated_Source\\PSoC5/UART_1.h"
 772              		.file 10 "Generated_Source\\PSoC5/sensorReset.h"
 773              		.file 11 "Generated_Source\\PSoC5/CyLib.h"
 774              		.file 12 "Generated_Source\\PSoC5/sensorSignal.h"
 775              		.file 13 "Generated_Source\\PSoC5/sensorClk.h"