ARM GAS  C:\Users\Simon\AppData\Local\Temp\ccw9tSlc.s 			page 1


   1              		.syntax unified
   2              		.cpu cortex-m3
   3              		.fpu softvfp
   4              		.eabi_attribute 20, 1
   5              		.eabi_attribute 21, 1
   6              		.eabi_attribute 23, 3
   7              		.eabi_attribute 24, 1
   8              		.eabi_attribute 25, 1
   9              		.eabi_attribute 26, 1
  10              		.eabi_attribute 30, 1
  11              		.eabi_attribute 34, 1
  12              		.eabi_attribute 18, 4
  13              		.thumb
  14              		.syntax unified
  15              		.file	"Servo.c"
  16              		.text
  17              	.Ltext0:
  18              		.cfi_sections	.debug_frame
  19              		.section	.text.servoOn,"ax",%progbits
  20              		.align	2
  21              		.global	servoOn
  22              		.thumb
  23              		.thumb_func
  24              		.type	servoOn, %function
  25              	servoOn:
  26              	.LFB63:
  27              		.file 1 "Servo.c"
   1:Servo.c       **** /* ========================================
   2:Servo.c       ****  *
   3:Servo.c       ****  * Copyright YOUR COMPANY, THE YEAR
   4:Servo.c       ****  * All Rights Reserved
   5:Servo.c       ****  * UNPUBLISHED, LICENSED SOFTWARE.
   6:Servo.c       ****  *
   7:Servo.c       ****  * CONFIDENTIAL AND PROPRIETARY INFORMATION
   8:Servo.c       ****  * WHICH IS THE PROPERTY OF your company.
   9:Servo.c       ****  *
  10:Servo.c       ****  * ========================================
  11:Servo.c       **** */
  12:Servo.c       **** #include "Servo.h"
  13:Servo.c       **** 
  14:Servo.c       **** void servoOn()
  15:Servo.c       **** {
  28              		.loc 1 15 0
  29              		.cfi_startproc
  30              		@ args = 0, pretend = 0, frame = 0
  31              		@ frame_needed = 0, uses_anonymous_args = 0
  32 0000 08B5     		push	{r3, lr}
  33              		.cfi_def_cfa_offset 8
  34              		.cfi_offset 3, -8
  35              		.cfi_offset 14, -4
  16:Servo.c       ****     ServoPWM_WriteCompare(on_position);
  36              		.loc 1 16 0
  37 0002 40F2DC50 		movw	r0, #1500
  38 0006 FFF7FEFF 		bl	ServoPWM_WriteCompare
  39              	.LVL0:
  17:Servo.c       ****     CyDelay(500);
  40              		.loc 1 17 0
ARM GAS  C:\Users\Simon\AppData\Local\Temp\ccw9tSlc.s 			page 2


  41 000a 4FF4FA70 		mov	r0, #500
  42 000e FFF7FEFF 		bl	CyDelay
  43              	.LVL1:
  44 0012 08BD     		pop	{r3, pc}
  45              		.cfi_endproc
  46              	.LFE63:
  47              		.size	servoOn, .-servoOn
  48              		.section	.text.servoOff,"ax",%progbits
  49              		.align	2
  50              		.global	servoOff
  51              		.thumb
  52              		.thumb_func
  53              		.type	servoOff, %function
  54              	servoOff:
  55              	.LFB64:
  18:Servo.c       **** }
  19:Servo.c       **** 
  20:Servo.c       **** void servoOff()
  21:Servo.c       **** {
  56              		.loc 1 21 0
  57              		.cfi_startproc
  58              		@ args = 0, pretend = 0, frame = 0
  59              		@ frame_needed = 0, uses_anonymous_args = 0
  60 0000 08B5     		push	{r3, lr}
  61              		.cfi_def_cfa_offset 8
  62              		.cfi_offset 3, -8
  63              		.cfi_offset 14, -4
  22:Servo.c       ****     ServoPWM_WriteCompare(off_position);
  64              		.loc 1 22 0
  65 0002 4FF42F70 		mov	r0, #700
  66 0006 FFF7FEFF 		bl	ServoPWM_WriteCompare
  67              	.LVL2:
  23:Servo.c       ****     CyDelay(500);
  68              		.loc 1 23 0
  69 000a 4FF4FA70 		mov	r0, #500
  70 000e FFF7FEFF 		bl	CyDelay
  71              	.LVL3:
  72 0012 08BD     		pop	{r3, pc}
  73              		.cfi_endproc
  74              	.LFE64:
  75              		.size	servoOff, .-servoOff
  76              		.section	.text.initServo,"ax",%progbits
  77              		.align	2
  78              		.global	initServo
  79              		.thumb
  80              		.thumb_func
  81              		.type	initServo, %function
  82              	initServo:
  83              	.LFB65:
  24:Servo.c       **** }
  25:Servo.c       **** 
  26:Servo.c       **** void initServo()
  27:Servo.c       **** {
  84              		.loc 1 27 0
  85              		.cfi_startproc
  86              		@ args = 0, pretend = 0, frame = 0
  87              		@ frame_needed = 0, uses_anonymous_args = 0
ARM GAS  C:\Users\Simon\AppData\Local\Temp\ccw9tSlc.s 			page 3


  88 0000 08B5     		push	{r3, lr}
  89              		.cfi_def_cfa_offset 8
  90              		.cfi_offset 3, -8
  91              		.cfi_offset 14, -4
  28:Servo.c       ****     ServoPWM_Start();
  92              		.loc 1 28 0
  93 0002 FFF7FEFF 		bl	ServoPWM_Start
  94              	.LVL4:
  29:Servo.c       ****     servoOff();
  95              		.loc 1 29 0
  96 0006 FFF7FEFF 		bl	servoOff
  97              	.LVL5:
  98 000a 08BD     		pop	{r3, pc}
  99              		.cfi_endproc
 100              	.LFE65:
 101              		.size	initServo, .-initServo
 102              		.text
 103              	.Letext0:
 104              		.file 2 "c:\\program files (x86)\\cypress\\psoc creator\\4.4\\psoc creator\\import\\gnu\\arm\\5.4.
 105              		.file 3 "c:\\program files (x86)\\cypress\\psoc creator\\4.4\\psoc creator\\import\\gnu\\arm\\5.4.
 106              		.file 4 "Generated_Source\\PSoC5/ServoPWM.h"
 107              		.file 5 "Generated_Source\\PSoC5/CyLib.h"
 108              		.file 6 "Generated_Source\\PSoC5/core_cm3.h"