ARM GAS  C:\Users\Simon\AppData\Local\Temp\ccE3FnQR.s 			page 1


   1              		.syntax unified
   2              		.cpu cortex-m3
   3              		.fpu softvfp
   4              		.eabi_attribute 20, 1
   5              		.eabi_attribute 21, 1
   6              		.eabi_attribute 23, 3
   7              		.eabi_attribute 24, 1
   8              		.eabi_attribute 25, 1
   9              		.eabi_attribute 26, 1
  10              		.eabi_attribute 30, 1
  11              		.eabi_attribute 34, 1
  12              		.eabi_attribute 18, 4
  13              		.thumb
  14              		.syntax unified
  15              		.file	"UART.c"
  16              		.text
  17              	.Ltext0:
  18              		.cfi_sections	.debug_frame
  19              		.section	.text.UARTHandler,"ax",%progbits
  20              		.align	2
  21              		.global	UARTHandler
  22              		.thumb
  23              		.thumb_func
  24              		.type	UARTHandler, %function
  25              	UARTHandler:
  26              	.LFB65:
  27              		.file 1 "UART.c"
   1:UART.c        **** /* ========================================
   2:UART.c        ****  *
   3:UART.c        ****  * Copyright YOUR COMPANY, THE YEAR
   4:UART.c        ****  * All Rights Reserved
   5:UART.c        ****  * UNPUBLISHED, LICENSED SOFTWARE.
   6:UART.c        ****  *
   7:UART.c        ****  * CONFIDENTIAL AND PROPRIETARY INFORMATION
   8:UART.c        ****  * WHICH IS THE PROPERTY OF your company.
   9:UART.c        ****  *
  10:UART.c        ****  * ========================================
  11:UART.c        **** */
  12:UART.c        **** 
  13:UART.c        **** #include "UART.h"
  14:UART.c        **** 
  15:UART.c        **** CY_ISR(isr_uart_rx_handler)  // UART recieve interrupt
  16:UART.c        **** {
  17:UART.c        ****     isr_uart_rx_Disable();//Stopper uart interrupt, så handleren ikke bliver afbrudt.
  18:UART.c        ****     
  19:UART.c        ****     uint8_t buf = UART_1_GetRxBufferSize();   
  20:UART.c        ****     
  21:UART.c        ****     if(buf==9)
  22:UART.c        ****     {
  23:UART.c        ****         startChar = UART_1_GetChar();
  24:UART.c        **** 
  25:UART.c        ****         if(startChar == 'l' || startChar == 'm' || startChar == 'd')
  26:UART.c        ****         {
  27:UART.c        ****             UARTHandler(startChar);
  28:UART.c        ****         }
  29:UART.c        ****     }
  30:UART.c        ****     
ARM GAS  C:\Users\Simon\AppData\Local\Temp\ccE3FnQR.s 			page 2


  31:UART.c        ****     isr_uart_rx_Enable(); // Starter UART interrupt igen.
  32:UART.c        **** }
  33:UART.c        **** 
  34:UART.c        **** void UARTHandler(uint8_t startChar) //Switch med input fra UART interrupt.
  35:UART.c        **** {
  28              		.loc 1 35 0
  29              		.cfi_startproc
  30              		@ args = 0, pretend = 0, frame = 0
  31              		@ frame_needed = 0, uses_anonymous_args = 0
  32              	.LVL0:
  33 0000 2DE9F047 		push	{r4, r5, r6, r7, r8, r9, r10, lr}
  34              		.cfi_def_cfa_offset 32
  35              		.cfi_offset 4, -32
  36              		.cfi_offset 5, -28
  37              		.cfi_offset 6, -24
  38              		.cfi_offset 7, -20
  39              		.cfi_offset 8, -16
  40              		.cfi_offset 9, -12
  41              		.cfi_offset 10, -8
  42              		.cfi_offset 14, -4
  36:UART.c        ****     switch(startChar)
  43              		.loc 1 36 0
  44 0004 6438     		subs	r0, r0, #100
  45              	.LVL1:
  46 0006 0E28     		cmp	r0, #14
  47 0008 00F2A680 		bhi	.L1
  48 000c DFE800F0 		tbb	[pc, r0]
  49              	.L4:
  50 0010 67       		.byte	(.L3-.L4)/2
  51 0011 A4       		.byte	(.L1-.L4)/2
  52 0012 A4       		.byte	(.L1-.L4)/2
  53 0013 A4       		.byte	(.L1-.L4)/2
  54 0014 A4       		.byte	(.L1-.L4)/2
  55 0015 A4       		.byte	(.L1-.L4)/2
  56 0016 A4       		.byte	(.L1-.L4)/2
  57 0017 A4       		.byte	(.L1-.L4)/2
  58 0018 08       		.byte	(.L5-.L4)/2
  59 0019 75       		.byte	(.L6-.L4)/2
  60 001a A4       		.byte	(.L1-.L4)/2
  61 001b A4       		.byte	(.L1-.L4)/2
  62 001c A4       		.byte	(.L1-.L4)/2
  63 001d A4       		.byte	(.L1-.L4)/2
  64 001e A0       		.byte	(.L7-.L4)/2
  65 001f 00       		.p2align 1
  66              	.L5:
  67              	.LVL2:
  68              	.LBB2:
  37:UART.c        ****     {
  38:UART.c        ****     case 'l': //lille 'L' styrer LED'er
  39:UART.c        ****         {   
  40:UART.c        ****         // Opretter 8 variabler af typen uint8_t
  41:UART.c        ****             uint8_t rxByte1=0, rxByte2=0, rxByte3=0, rxByte4=0, 
  42:UART.c        ****                     rxByte5=0, rxByte6=0, rxByte7=0, rxByte8=0;
  43:UART.c        ****             
  44:UART.c        ****             //Kopiere modtagne bytes ind i variablerne
  45:UART.c        ****             rxByte1 = UART_1_ReadRxData();
  69              		.loc 1 45 0
ARM GAS  C:\Users\Simon\AppData\Local\Temp\ccE3FnQR.s 			page 3


  70 0020 FFF7FEFF 		bl	UART_1_ReadRxData
  71              	.LVL3:
  72 0024 8246     		mov	r10, r0
  73              	.LVL4:
  46:UART.c        ****             rxByte2 = UART_1_ReadRxData();
  74              		.loc 1 46 0
  75 0026 FFF7FEFF 		bl	UART_1_ReadRxData
  76              	.LVL5:
  77 002a 8146     		mov	r9, r0
  78              	.LVL6:
  47:UART.c        ****             rxByte3 = UART_1_ReadRxData();
  79              		.loc 1 47 0
  80 002c FFF7FEFF 		bl	UART_1_ReadRxData
  81              	.LVL7:
  82 0030 8046     		mov	r8, r0
  83              	.LVL8:
  48:UART.c        ****             rxByte4 = UART_1_ReadRxData();
  84              		.loc 1 48 0
  85 0032 FFF7FEFF 		bl	UART_1_ReadRxData
  86              	.LVL9:
  87 0036 0746     		mov	r7, r0
  88              	.LVL10:
  49:UART.c        ****             rxByte5 = UART_1_ReadRxData();
  89              		.loc 1 49 0
  90 0038 FFF7FEFF 		bl	UART_1_ReadRxData
  91              	.LVL11:
  92 003c 0646     		mov	r6, r0
  93              	.LVL12:
  50:UART.c        ****             rxByte6 = UART_1_ReadRxData();
  94              		.loc 1 50 0
  95 003e FFF7FEFF 		bl	UART_1_ReadRxData
  96              	.LVL13:
  97 0042 0546     		mov	r5, r0
  98              	.LVL14:
  51:UART.c        ****             rxByte7 = UART_1_ReadRxData();
  99              		.loc 1 51 0
 100 0044 FFF7FEFF 		bl	UART_1_ReadRxData
 101              	.LVL15:
 102 0048 0446     		mov	r4, r0
 103              	.LVL16:
  52:UART.c        ****             rxByte8 = UART_1_ReadRxData();
 104              		.loc 1 52 0
 105 004a FFF7FEFF 		bl	UART_1_ReadRxData
 106              	.LVL17:
 107              	.LBB3:
  53:UART.c        **** 
  54:UART.c        ****             // Loader de 8 variabler over i arrayet
  55:UART.c        ****             for (int i = 0; i < 8; i++) {
 108              		.loc 1 55 0
 109 004e 0023     		movs	r3, #0
 110 0050 3EE0     		b	.L8
 111              	.LVL18:
 112              	.L9:
  56:UART.c        ****                     legalMoves[i]      = (rxByte8 >> i) & 1;
 113              		.loc 1 56 0 discriminator 3
 114 0052 40FA03F1 		asr	r1, r0, r3
 115 0056 414A     		ldr	r2, .L13
ARM GAS  C:\Users\Simon\AppData\Local\Temp\ccE3FnQR.s 			page 4


 116 0058 01F00101 		and	r1, r1, #1
 117 005c D154     		strb	r1, [r2, r3]
  57:UART.c        ****                     legalMoves[i + 8]  = (rxByte7 >> i) & 1;
 118              		.loc 1 57 0 discriminator 3
 119 005e 03F1080E 		add	lr, r3, #8
 120 0062 44FA03F1 		asr	r1, r4, r3
 121 0066 01F00101 		and	r1, r1, #1
 122 006a 02F80E10 		strb	r1, [r2, lr]
  58:UART.c        ****                     legalMoves[i + 16] = (rxByte6 >> i) & 1;
 123              		.loc 1 58 0 discriminator 3
 124 006e 03F1100E 		add	lr, r3, #16
 125 0072 45FA03F1 		asr	r1, r5, r3
 126 0076 01F00101 		and	r1, r1, #1
 127 007a 02F80E10 		strb	r1, [r2, lr]
  59:UART.c        ****                     legalMoves[i + 24] = (rxByte5 >> i) & 1;
 128              		.loc 1 59 0 discriminator 3
 129 007e 03F1180E 		add	lr, r3, #24
 130 0082 46FA03F1 		asr	r1, r6, r3
 131 0086 01F00101 		and	r1, r1, #1
 132 008a 02F80E10 		strb	r1, [r2, lr]
  60:UART.c        ****                     legalMoves[i + 32] = (rxByte4 >> i) & 1;
 133              		.loc 1 60 0 discriminator 3
 134 008e 03F1200E 		add	lr, r3, #32
 135 0092 47FA03F1 		asr	r1, r7, r3
 136 0096 01F00101 		and	r1, r1, #1
 137 009a 02F80E10 		strb	r1, [r2, lr]
  61:UART.c        ****                     legalMoves[i + 40] = (rxByte3 >> i) & 1;
 138              		.loc 1 61 0 discriminator 3
 139 009e 03F1280E 		add	lr, r3, #40
 140 00a2 48FA03F1 		asr	r1, r8, r3
 141 00a6 01F00101 		and	r1, r1, #1
 142 00aa 02F80E10 		strb	r1, [r2, lr]
  62:UART.c        ****                     legalMoves[i + 48] = (rxByte2 >> i) & 1;
 143              		.loc 1 62 0 discriminator 3
 144 00ae 03F1300E 		add	lr, r3, #48
 145 00b2 49FA03F1 		asr	r1, r9, r3
 146 00b6 01F00101 		and	r1, r1, #1
 147 00ba 02F80E10 		strb	r1, [r2, lr]
  63:UART.c        ****                     legalMoves[i + 56] = (rxByte1 >> i) & 1;
 148              		.loc 1 63 0 discriminator 3
 149 00be 03F1380E 		add	lr, r3, #56
 150 00c2 4AFA03F1 		asr	r1, r10, r3
 151 00c6 01F00101 		and	r1, r1, #1
 152 00ca 02F80E10 		strb	r1, [r2, lr]
  55:UART.c        ****                     legalMoves[i]      = (rxByte8 >> i) & 1;
 153              		.loc 1 55 0 discriminator 3
 154 00ce 0133     		adds	r3, r3, #1
 155              	.LVL19:
 156              	.L8:
  55:UART.c        ****                     legalMoves[i]      = (rxByte8 >> i) & 1;
 157              		.loc 1 55 0 is_stmt 0 discriminator 1
 158 00d0 072B     		cmp	r3, #7
 159 00d2 BEDD     		ble	.L9
 160              	.LBE3:
  64:UART.c        ****             }
  65:UART.c        ****             
  66:UART.c        ****             //legalMovesRecieved = 1;
ARM GAS  C:\Users\Simon\AppData\Local\Temp\ccE3FnQR.s 			page 5


  67:UART.c        ****             setLEDs(legalMoves); // Kalder LED funktionen med arrayet.
 161              		.loc 1 67 0 is_stmt 1
 162 00d4 2148     		ldr	r0, .L13
 163              	.LVL20:
 164 00d6 FFF7FEFF 		bl	setLEDs
 165              	.LVL21:
 166              	.LBE2:
  68:UART.c        ****         }
  69:UART.c        ****         break;
 167              		.loc 1 69 0
 168 00da BDE8F087 		pop	{r4, r5, r6, r7, r8, r9, r10, pc}
 169              	.LVL22:
 170              	.L3:
 171              	.LBB4:
  70:UART.c        **** 
  71:UART.c        ****         case 'd': //Brik der rykkes til dødsgrav
  72:UART.c        ****         {
  73:UART.c        ****             uint8_t fromSquare = UART_1_ReadRxData();
 172              		.loc 1 73 0
 173 00de FFF7FEFF 		bl	UART_1_ReadRxData
 174              	.LVL23:
 175 00e2 0446     		mov	r4, r0
 176              	.LVL24:
  74:UART.c        ****             UART_1_ClearRxBuffer(); //Fjern de tomme bytes i RX-bufferen
 177              		.loc 1 74 0
 178 00e4 FFF7FEFF 		bl	UART_1_ClearRxBuffer
 179              	.LVL25:
  75:UART.c        ****             
  76:UART.c        ****             moveChessPiece(fromSquare, deadSquare); // Brik rykkes til dødsgraven
 180              		.loc 1 76 0
 181 00e8 4021     		movs	r1, #64
 182 00ea 2046     		mov	r0, r4
 183 00ec FFF7FEFF 		bl	moveChessPiece
 184              	.LVL26:
  77:UART.c        ****             UART_1_PutChar('s'); //Brik rykket med succes. RPI orienteres
 185              		.loc 1 77 0
 186 00f0 7320     		movs	r0, #115
 187 00f2 FFF7FEFF 		bl	UART_1_PutChar
 188              	.LVL27:
 189              	.LBE4:
  78:UART.c        **** 
  79:UART.c        ****         }
  80:UART.c        ****         break;
 190              		.loc 1 80 0
 191 00f6 BDE8F087 		pop	{r4, r5, r6, r7, r8, r9, r10, pc}
 192              	.LVL28:
 193              	.L6:
 194              	.LBB5:
  81:UART.c        **** 
  82:UART.c        ****         case 'm': //Ryk brik og vent til brik 
  83:UART.c        ****         {
  84:UART.c        ****             uint8_t fromSquare = UART_1_ReadRxData();
 195              		.loc 1 84 0
 196 00fa FFF7FEFF 		bl	UART_1_ReadRxData
 197              	.LVL29:
 198 00fe 0546     		mov	r5, r0
 199              	.LVL30:
ARM GAS  C:\Users\Simon\AppData\Local\Temp\ccE3FnQR.s 			page 6


  85:UART.c        ****             uint8_t toSquare = UART_1_ReadRxData();
 200              		.loc 1 85 0
 201 0100 FFF7FEFF 		bl	UART_1_ReadRxData
 202              	.LVL31:
 203 0104 0446     		mov	r4, r0
 204              	.LVL32:
  86:UART.c        ****             UART_1_ClearRxBuffer(); //Fjern de tomme bytes i RX-bufferen
 205              		.loc 1 86 0
 206 0106 FFF7FEFF 		bl	UART_1_ClearRxBuffer
 207              	.LVL33:
  87:UART.c        ****             
  88:UART.c        ****             moveChessPiece(fromSquare, toSquare);
 208              		.loc 1 88 0
 209 010a 2146     		mov	r1, r4
 210 010c 2846     		mov	r0, r5
 211 010e FFF7FEFF 		bl	moveChessPiece
 212              	.LVL34:
 213              	.L10:
  89:UART.c        ****             
  90:UART.c        ****             while(1) //vent indtil feltet hvor RoboMate har rykket en brik til er 1
  91:UART.c        ****             {
  92:UART.c        ****                 sensorScan();
 214              		.loc 1 92 0
 215 0112 FFF7FEFF 		bl	sensorScan
 216              	.LVL35:
  93:UART.c        ****                 if(squareReg[toSquare] == 1)
 217              		.loc 1 93 0
 218 0116 124B     		ldr	r3, .L13+4
 219 0118 1B5D     		ldrb	r3, [r3, r4]	@ zero_extendqisi2
 220 011a 012B     		cmp	r3, #1
 221 011c F9D1     		bne	.L10
  94:UART.c        ****                 {
  95:UART.c        ****                     CyDelayUs(change_validation_delay_us);
 222              		.loc 1 95 0
 223 011e 40F6B830 		movw	r0, #3000
 224 0122 FFF7FEFF 		bl	CyDelayUs
 225              	.LVL36:
  96:UART.c        ****                     sensorScan();
 226              		.loc 1 96 0
 227 0126 FFF7FEFF 		bl	sensorScan
 228              	.LVL37:
  97:UART.c        ****                     if(squareReg[toSquare] == 1)
 229              		.loc 1 97 0
 230 012a 0D4B     		ldr	r3, .L13+4
 231 012c 1B5D     		ldrb	r3, [r3, r4]	@ zero_extendqisi2
 232 012e 012B     		cmp	r3, #1
 233 0130 EFD1     		bne	.L10
  98:UART.c        ****                     {
  99:UART.c        ****                         break;
 100:UART.c        ****                     }
 101:UART.c        ****                 }
 102:UART.c        ****             }
 103:UART.c        ****             moveAcceptedLED(toSquare);
 234              		.loc 1 103 0
 235 0132 2046     		mov	r0, r4
 236 0134 FFF7FEFF 		bl	moveAcceptedLED
 237              	.LVL38:
ARM GAS  C:\Users\Simon\AppData\Local\Temp\ccE3FnQR.s 			page 7


 104:UART.c        ****             newPos = -1; liftPos = -1; //Nulstil new position
 238              		.loc 1 104 0
 239 0138 FF23     		movs	r3, #255
 240 013a 0A4A     		ldr	r2, .L13+8
 241 013c 1370     		strb	r3, [r2]
 242 013e 0A4A     		ldr	r2, .L13+12
 243 0140 1370     		strb	r3, [r2]
 105:UART.c        ****             sensorScan();
 244              		.loc 1 105 0
 245 0142 FFF7FEFF 		bl	sensorScan
 246              	.LVL39:
 106:UART.c        ****             UART_1_PutChar('s'); //Brik rykket med succes. RPI orienteres
 247              		.loc 1 106 0
 248 0146 7320     		movs	r0, #115
 249 0148 FFF7FEFF 		bl	UART_1_PutChar
 250              	.LVL40:
 107:UART.c        ****             break;
 251              		.loc 1 107 0
 252 014c BDE8F087 		pop	{r4, r5, r6, r7, r8, r9, r10, pc}
 253              	.LVL41:
 254              	.L7:
 255              	.LBE5:
 108:UART.c        ****         }
 109:UART.c        ****         break;
 110:UART.c        ****         
 111:UART.c        ****         case 'r': // Reset PSoC
 112:UART.c        ****             {
 113:UART.c        ****                 moveHome(); // Kør tilbage til felt 0.
 256              		.loc 1 113 0
 257 0150 FFF7FEFF 		bl	moveHome
 258              	.LVL42:
 114:UART.c        ****                 CySoftwareReset();
 259              		.loc 1 114 0
 260 0154 FFF7FEFF 		bl	CySoftwareReset
 261              	.LVL43:
 262              	.L1:
 263 0158 BDE8F087 		pop	{r4, r5, r6, r7, r8, r9, r10, pc}
 264              	.L14:
 265              		.align	2
 266              	.L13:
 267 015c 00000000 		.word	legalMoves
 268 0160 00000000 		.word	squareReg
 269 0164 00000000 		.word	newPos
 270 0168 00000000 		.word	liftPos
 271              		.cfi_endproc
 272              	.LFE65:
 273              		.size	UARTHandler, .-UARTHandler
 274              		.section	.text.isr_uart_rx_handler,"ax",%progbits
 275              		.align	2
 276              		.global	isr_uart_rx_handler
 277              		.thumb
 278              		.thumb_func
 279              		.type	isr_uart_rx_handler, %function
 280              	isr_uart_rx_handler:
 281              	.LFB64:
  16:UART.c        ****     isr_uart_rx_Disable();//Stopper uart interrupt, så handleren ikke bliver afbrudt.
 282              		.loc 1 16 0
ARM GAS  C:\Users\Simon\AppData\Local\Temp\ccE3FnQR.s 			page 8


 283              		.cfi_startproc
 284              		@ args = 0, pretend = 0, frame = 0
 285              		@ frame_needed = 0, uses_anonymous_args = 0
 286 0000 08B5     		push	{r3, lr}
 287              		.cfi_def_cfa_offset 8
 288              		.cfi_offset 3, -8
 289              		.cfi_offset 14, -4
  17:UART.c        ****     
 290              		.loc 1 17 0
 291 0002 FFF7FEFF 		bl	isr_uart_rx_Disable
 292              	.LVL44:
  19:UART.c        ****     
 293              		.loc 1 19 0
 294 0006 FFF7FEFF 		bl	UART_1_GetRxBufferSize
 295              	.LVL45:
  21:UART.c        ****     {
 296              		.loc 1 21 0
 297 000a 0928     		cmp	r0, #9
 298 000c 0CD1     		bne	.L16
  23:UART.c        **** 
 299              		.loc 1 23 0
 300 000e FFF7FEFF 		bl	UART_1_GetChar
 301              	.LVL46:
 302 0012 074B     		ldr	r3, .L19
 303 0014 1870     		strb	r0, [r3]
  25:UART.c        ****         {
 304              		.loc 1 25 0
 305 0016 A0F16C03 		sub	r3, r0, #108
 306 001a DBB2     		uxtb	r3, r3
 307 001c 012B     		cmp	r3, #1
 308 001e 01D9     		bls	.L17
  25:UART.c        ****         {
 309              		.loc 1 25 0 is_stmt 0 discriminator 1
 310 0020 6428     		cmp	r0, #100
 311 0022 01D1     		bne	.L16
 312              	.L17:
  27:UART.c        ****         }
 313              		.loc 1 27 0 is_stmt 1
 314 0024 FFF7FEFF 		bl	UARTHandler
 315              	.LVL47:
 316              	.L16:
  31:UART.c        **** }
 317              		.loc 1 31 0
 318 0028 FFF7FEFF 		bl	isr_uart_rx_Enable
 319              	.LVL48:
 320 002c 08BD     		pop	{r3, pc}
 321              	.L20:
 322 002e 00BF     		.align	2
 323              	.L19:
 324 0030 00000000 		.word	startChar
 325              		.cfi_endproc
 326              	.LFE64:
 327              		.size	isr_uart_rx_handler, .-isr_uart_rx_handler
 328              		.section	.text.initUART,"ax",%progbits
 329              		.align	2
 330              		.global	initUART
 331              		.thumb
ARM GAS  C:\Users\Simon\AppData\Local\Temp\ccE3FnQR.s 			page 9


 332              		.thumb_func
 333              		.type	initUART, %function
 334              	initUART:
 335              	.LFB66:
 115:UART.c        ****             }
 116:UART.c        ****             break;
 117:UART.c        ****             
 118:UART.c        ****         default :
 119:UART.c        ****             {
 120:UART.c        ****             // nothing
 121:UART.c        ****             }
 122:UART.c        ****             break;
 123:UART.c        ****     }
 124:UART.c        **** }
 125:UART.c        **** 
 126:UART.c        **** void initUART()
 127:UART.c        **** {
 336              		.loc 1 127 0
 337              		.cfi_startproc
 338              		@ args = 0, pretend = 0, frame = 0
 339              		@ frame_needed = 0, uses_anonymous_args = 0
 340 0000 08B5     		push	{r3, lr}
 341              		.cfi_def_cfa_offset 8
 342              		.cfi_offset 3, -8
 343              		.cfi_offset 14, -4
 128:UART.c        ****     UART_1_Start(); //Start Uart
 344              		.loc 1 128 0
 345 0002 FFF7FEFF 		bl	UART_1_Start
 346              	.LVL49:
 129:UART.c        ****     isr_uart_rx_StartEx(isr_uart_rx_handler); // UART interrupt initialisering
 347              		.loc 1 129 0
 348 0006 0248     		ldr	r0, .L23
 349 0008 FFF7FEFF 		bl	isr_uart_rx_StartEx
 350              	.LVL50:
 351 000c 08BD     		pop	{r3, pc}
 352              	.L24:
 353 000e 00BF     		.align	2
 354              	.L23:
 355 0010 00000000 		.word	isr_uart_rx_handler
 356              		.cfi_endproc
 357              	.LFE66:
 358              		.size	initUART, .-initUART
 359              		.section	.text.UARTArrayPrintTest,"ax",%progbits
 360              		.align	2
 361              		.global	UARTArrayPrintTest
 362              		.thumb
 363              		.thumb_func
 364              		.type	UARTArrayPrintTest, %function
 365              	UARTArrayPrintTest:
 366              	.LFB67:
 130:UART.c        **** }
 131:UART.c        **** 
 132:UART.c        **** void UARTArrayPrintTest()
 133:UART.c        **** {
 367              		.loc 1 133 0
 368              		.cfi_startproc
 369              		@ args = 0, pretend = 0, frame = 0
ARM GAS  C:\Users\Simon\AppData\Local\Temp\ccE3FnQR.s 			page 10


 370              		@ frame_needed = 0, uses_anonymous_args = 0
 371 0000 2DE9F047 		push	{r4, r5, r6, r7, r8, r9, r10, lr}
 372              		.cfi_def_cfa_offset 32
 373              		.cfi_offset 4, -32
 374              		.cfi_offset 5, -28
 375              		.cfi_offset 6, -24
 376              		.cfi_offset 7, -20
 377              		.cfi_offset 8, -16
 378              		.cfi_offset 9, -12
 379              		.cfi_offset 10, -8
 380              		.cfi_offset 14, -4
 381              	.LVL51:
 382              	.LBB6:
 134:UART.c        ****     // Opretter 8 variabler af typen uint8_t
 135:UART.c        ****     uint8_t byte1 = 0b00000001;
 136:UART.c        ****     uint8_t byte2 = 0b00000011;
 137:UART.c        ****     uint8_t byte3 = 0b00000111;
 138:UART.c        ****     uint8_t byte4 = 0b00001111;
 139:UART.c        ****     uint8_t byte5 = 0b00011111;
 140:UART.c        ****     uint8_t byte6 = 0b00111111;
 141:UART.c        ****     uint8_t byte7 = 0b01111111;
 142:UART.c        ****     uint8_t byte8 = 0b11111111;
 143:UART.c        ****     
 144:UART.c        **** 
 145:UART.c        ****     // Loader de 8 variabler over i arrayet
 146:UART.c        ****     for(int i = 0; i < 8; i++) {
 383              		.loc 1 146 0
 384 0004 0023     		movs	r3, #0
 385 0006 3AE0     		b	.L26
 386              	.LVL52:
 387              	.L27:
 147:UART.c        ****         legalMoves[i]      = (byte1 >> (7 - i)) & 1;
 388              		.loc 1 147 0 discriminator 3
 389 0008 C3F10701 		rsb	r1, r3, #7
 390 000c 0120     		movs	r0, #1
 391 000e 0841     		asrs	r0, r0, r1
 392 0010 544A     		ldr	r2, .L31
 393 0012 00F00100 		and	r0, r0, #1
 394 0016 D054     		strb	r0, [r2, r3]
 148:UART.c        ****         legalMoves[i + 8]  = (byte2 >> (7 - i)) & 1;
 395              		.loc 1 148 0 discriminator 3
 396 0018 03F10804 		add	r4, r3, #8
 397 001c 0320     		movs	r0, #3
 398 001e 0841     		asrs	r0, r0, r1
 399 0020 00F00100 		and	r0, r0, #1
 400 0024 1055     		strb	r0, [r2, r4]
 149:UART.c        ****         legalMoves[i + 16] = (byte3 >> (7 - i)) & 1;
 401              		.loc 1 149 0 discriminator 3
 402 0026 03F11004 		add	r4, r3, #16
 403 002a 0720     		movs	r0, #7
 404 002c 0841     		asrs	r0, r0, r1
 405 002e 00F00100 		and	r0, r0, #1
 406 0032 1055     		strb	r0, [r2, r4]
 150:UART.c        ****         legalMoves[i + 24] = (byte4 >> (7 - i)) & 1;
 407              		.loc 1 150 0 discriminator 3
 408 0034 03F11804 		add	r4, r3, #24
 409 0038 0F20     		movs	r0, #15
ARM GAS  C:\Users\Simon\AppData\Local\Temp\ccE3FnQR.s 			page 11


 410 003a 0841     		asrs	r0, r0, r1
 411 003c 00F00100 		and	r0, r0, #1
 412 0040 1055     		strb	r0, [r2, r4]
 151:UART.c        ****         legalMoves[i + 32] = (byte5 >> (7 - i)) & 1;
 413              		.loc 1 151 0 discriminator 3
 414 0042 03F12004 		add	r4, r3, #32
 415 0046 1F20     		movs	r0, #31
 416 0048 0841     		asrs	r0, r0, r1
 417 004a 00F00100 		and	r0, r0, #1
 418 004e 1055     		strb	r0, [r2, r4]
 152:UART.c        ****         legalMoves[i + 40] = (byte6 >> (7 - i)) & 1;
 419              		.loc 1 152 0 discriminator 3
 420 0050 03F12804 		add	r4, r3, #40
 421 0054 3F20     		movs	r0, #63
 422 0056 0841     		asrs	r0, r0, r1
 423 0058 00F00100 		and	r0, r0, #1
 424 005c 1055     		strb	r0, [r2, r4]
 153:UART.c        ****         legalMoves[i + 48] = (byte7 >> (7 - i)) & 1;
 425              		.loc 1 153 0 discriminator 3
 426 005e 03F13004 		add	r4, r3, #48
 427 0062 7F20     		movs	r0, #127
 428 0064 0841     		asrs	r0, r0, r1
 429 0066 00F00100 		and	r0, r0, #1
 430 006a 1055     		strb	r0, [r2, r4]
 154:UART.c        ****         legalMoves[i + 56] = (byte8 >> (7 - i)) & 1;
 431              		.loc 1 154 0 discriminator 3
 432 006c 03F13804 		add	r4, r3, #56
 433 0070 FF20     		movs	r0, #255
 434 0072 40FA01F1 		asr	r1, r0, r1
 435 0076 01F00101 		and	r1, r1, #1
 436 007a 1155     		strb	r1, [r2, r4]
 146:UART.c        ****         legalMoves[i]      = (byte1 >> (7 - i)) & 1;
 437              		.loc 1 146 0 discriminator 3
 438 007c 0133     		adds	r3, r3, #1
 439              	.LVL53:
 440              	.L26:
 146:UART.c        ****         legalMoves[i]      = (byte1 >> (7 - i)) & 1;
 441              		.loc 1 146 0 is_stmt 0 discriminator 1
 442 007e 072B     		cmp	r3, #7
 443 0080 C2DD     		ble	.L27
 444 0082 0023     		movs	r3, #0
 445              	.LVL54:
 446 0084 1C46     		mov	r4, r3
 447 0086 1D46     		mov	r5, r3
 448 0088 1E46     		mov	r6, r3
 449 008a 1F46     		mov	r7, r3
 450 008c 9846     		mov	r8, r3
 451 008e 9946     		mov	r9, r3
 452 0090 9A46     		mov	r10, r3
 453 0092 1846     		mov	r0, r3
 454 0094 4BE0     		b	.L28
 455              	.LVL55:
 456              	.L29:
 457              	.LBE6:
 458              	.LBB7:
 155:UART.c        ****     }
 156:UART.c        ****     
ARM GAS  C:\Users\Simon\AppData\Local\Temp\ccE3FnQR.s 			page 12


 157:UART.c        ****     uint8_t arrayByte1=0, arrayByte2=0, arrayByte3=0, arrayByte4=0, 
 158:UART.c        ****             arrayByte5=0, arrayByte6=0, arrayByte7=0, arrayByte8=0;
 159:UART.c        ****     
 160:UART.c        ****     for(int i = 0; i < 8; i++) {
 161:UART.c        ****         arrayByte1 |= legalMoves[i] << (7 - i);
 459              		.loc 1 161 0 is_stmt 1 discriminator 3
 460 0096 3349     		ldr	r1, .L31
 461 0098 11F803E0 		ldrb	lr, [r1, r3]	@ zero_extendqisi2
 462 009c C3F10702 		rsb	r2, r3, #7
 463 00a0 0EFA02FE 		lsl	lr, lr, r2
 464 00a4 4EEA0000 		orr	r0, lr, r0
 465              	.LVL56:
 466 00a8 C0B2     		uxtb	r0, r0
 467              	.LVL57:
 162:UART.c        ****         arrayByte2 |= legalMoves[i + 8] << (7 - i);
 468              		.loc 1 162 0 discriminator 3
 469 00aa 03F1080E 		add	lr, r3, #8
 470 00ae 11F80EE0 		ldrb	lr, [r1, lr]	@ zero_extendqisi2
 471 00b2 0EFA02FE 		lsl	lr, lr, r2
 472 00b6 4EEA0A0A 		orr	r10, lr, r10
 473              	.LVL58:
 474 00ba 5FFA8AFA 		uxtb	r10, r10
 475              	.LVL59:
 163:UART.c        ****         arrayByte3 |= legalMoves[i + 16] << (7 - i);
 476              		.loc 1 163 0 discriminator 3
 477 00be 03F1100E 		add	lr, r3, #16
 478 00c2 11F80EE0 		ldrb	lr, [r1, lr]	@ zero_extendqisi2
 479 00c6 0EFA02FE 		lsl	lr, lr, r2
 480 00ca 4EEA0909 		orr	r9, lr, r9
 481              	.LVL60:
 482 00ce 5FFA89F9 		uxtb	r9, r9
 483              	.LVL61:
 164:UART.c        ****         arrayByte4 |= legalMoves[i + 24] << (7 - i);
 484              		.loc 1 164 0 discriminator 3
 485 00d2 03F1180E 		add	lr, r3, #24
 486 00d6 11F80EE0 		ldrb	lr, [r1, lr]	@ zero_extendqisi2
 487 00da 0EFA02FE 		lsl	lr, lr, r2
 488 00de 4EEA0808 		orr	r8, lr, r8
 489              	.LVL62:
 490 00e2 5FFA88F8 		uxtb	r8, r8
 491              	.LVL63:
 165:UART.c        ****         arrayByte5 |= legalMoves[i + 32] << (7 - i);
 492              		.loc 1 165 0 discriminator 3
 493 00e6 03F1200E 		add	lr, r3, #32
 494 00ea 11F80EE0 		ldrb	lr, [r1, lr]	@ zero_extendqisi2
 495 00ee 0EFA02FE 		lsl	lr, lr, r2
 496 00f2 4EEA0707 		orr	r7, lr, r7
 497              	.LVL64:
 498 00f6 FFB2     		uxtb	r7, r7
 499              	.LVL65:
 166:UART.c        ****         arrayByte6 |= legalMoves[i + 40] << (7 - i);
 500              		.loc 1 166 0 discriminator 3
 501 00f8 03F1280E 		add	lr, r3, #40
 502 00fc 11F80EE0 		ldrb	lr, [r1, lr]	@ zero_extendqisi2
 503 0100 0EFA02FE 		lsl	lr, lr, r2
 504 0104 4EEA0606 		orr	r6, lr, r6
 505              	.LVL66:
ARM GAS  C:\Users\Simon\AppData\Local\Temp\ccE3FnQR.s 			page 13


 506 0108 F6B2     		uxtb	r6, r6
 507              	.LVL67:
 167:UART.c        ****         arrayByte7 |= legalMoves[i + 48] << (7 - i);
 508              		.loc 1 167 0 discriminator 3
 509 010a 03F1300E 		add	lr, r3, #48
 510 010e 11F80EE0 		ldrb	lr, [r1, lr]	@ zero_extendqisi2
 511 0112 0EFA02FE 		lsl	lr, lr, r2
 512 0116 4EEA0505 		orr	r5, lr, r5
 513              	.LVL68:
 514 011a EDB2     		uxtb	r5, r5
 515              	.LVL69:
 168:UART.c        ****         arrayByte8 |= legalMoves[i + 56] << (7 - i);
 516              		.loc 1 168 0 discriminator 3
 517 011c 03F1380E 		add	lr, r3, #56
 518 0120 11F80E10 		ldrb	r1, [r1, lr]	@ zero_extendqisi2
 519 0124 01FA02F2 		lsl	r2, r1, r2
 520 0128 1443     		orrs	r4, r4, r2
 521              	.LVL70:
 522 012a E4B2     		uxtb	r4, r4
 523              	.LVL71:
 160:UART.c        ****         arrayByte1 |= legalMoves[i] << (7 - i);
 524              		.loc 1 160 0 discriminator 3
 525 012c 0133     		adds	r3, r3, #1
 526              	.LVL72:
 527              	.L28:
 160:UART.c        ****         arrayByte1 |= legalMoves[i] << (7 - i);
 528              		.loc 1 160 0 is_stmt 0 discriminator 1
 529 012e 072B     		cmp	r3, #7
 530 0130 B1DD     		ble	.L29
 531              	.LBE7:
 169:UART.c        ****     }
 170:UART.c        **** 
 171:UART.c        ****     //Echo back modtagne bytes - uden lille L(startChar)
 172:UART.c        ****     UART_1_WriteTxData(arrayByte1);
 532              		.loc 1 172 0 is_stmt 1
 533 0132 FFF7FEFF 		bl	UART_1_WriteTxData
 534              	.LVL73:
 173:UART.c        ****     UART_1_WriteTxData(arrayByte2);
 535              		.loc 1 173 0
 536 0136 5046     		mov	r0, r10
 537 0138 FFF7FEFF 		bl	UART_1_WriteTxData
 538              	.LVL74:
 174:UART.c        ****     UART_1_WriteTxData(arrayByte3);
 539              		.loc 1 174 0
 540 013c 4846     		mov	r0, r9
 541 013e FFF7FEFF 		bl	UART_1_WriteTxData
 542              	.LVL75:
 175:UART.c        ****     UART_1_WriteTxData(arrayByte4);
 543              		.loc 1 175 0
 544 0142 4046     		mov	r0, r8
 545 0144 FFF7FEFF 		bl	UART_1_WriteTxData
 546              	.LVL76:
 176:UART.c        ****     UART_1_WriteTxData(arrayByte5);
 547              		.loc 1 176 0
 548 0148 3846     		mov	r0, r7
 549 014a FFF7FEFF 		bl	UART_1_WriteTxData
 550              	.LVL77:
ARM GAS  C:\Users\Simon\AppData\Local\Temp\ccE3FnQR.s 			page 14


 177:UART.c        ****     UART_1_WriteTxData(arrayByte6);
 551              		.loc 1 177 0
 552 014e 3046     		mov	r0, r6
 553 0150 FFF7FEFF 		bl	UART_1_WriteTxData
 554              	.LVL78:
 178:UART.c        ****     UART_1_WriteTxData(arrayByte7);
 555              		.loc 1 178 0
 556 0154 2846     		mov	r0, r5
 557 0156 FFF7FEFF 		bl	UART_1_WriteTxData
 558              	.LVL79:
 179:UART.c        ****     UART_1_WriteTxData(arrayByte8);
 559              		.loc 1 179 0
 560 015a 2046     		mov	r0, r4
 561 015c FFF7FEFF 		bl	UART_1_WriteTxData
 562              	.LVL80:
 563 0160 BDE8F087 		pop	{r4, r5, r6, r7, r8, r9, r10, pc}
 564              	.LVL81:
 565              	.L32:
 566              		.align	2
 567              	.L31:
 568 0164 00000000 		.word	legalMoves
 569              		.cfi_endproc
 570              	.LFE67:
 571              		.size	UARTArrayPrintTest, .-UARTArrayPrintTest
 572              		.section	.text.UARTLedTest,"ax",%progbits
 573              		.align	2
 574              		.global	UARTLedTest
 575              		.thumb
 576              		.thumb_func
 577              		.type	UARTLedTest, %function
 578              	UARTLedTest:
 579              	.LFB68:
 180:UART.c        **** }
 181:UART.c        **** 
 182:UART.c        **** void UARTLedTest()
 183:UART.c        **** {
 580              		.loc 1 183 0
 581              		.cfi_startproc
 582              		@ args = 0, pretend = 0, frame = 0
 583              		@ frame_needed = 0, uses_anonymous_args = 0
 584 0000 08B5     		push	{r3, lr}
 585              		.cfi_def_cfa_offset 8
 586              		.cfi_offset 3, -8
 587              		.cfi_offset 14, -4
 588              	.LVL82:
 184:UART.c        ****     
 185:UART.c        ****     // Opretter 8 variabler af typen uint8_t
 186:UART.c        ****     uint8_t byte1 = 0b00000000;
 187:UART.c        ****     uint8_t byte2 = 0b00000000;
 188:UART.c        ****     uint8_t byte3 = 0b00000000;
 189:UART.c        ****     uint8_t byte4 = 0b00000000;
 190:UART.c        ****     uint8_t byte5 = 0b00000010;
 191:UART.c        ****     uint8_t byte6 = 0b00000110;
 192:UART.c        ****     uint8_t byte7 = 0b00000000;
 193:UART.c        ****     uint8_t byte8 = 0b00000000;
 194:UART.c        ****     
 195:UART.c        ****     // TX og RX kortsluttes på PSoC
ARM GAS  C:\Users\Simon\AppData\Local\Temp\ccE3FnQR.s 			page 15


 196:UART.c        ****     
 197:UART.c        ****     // Arrayet sendes på UART TX
 198:UART.c        ****     UART_1_PutChar('l'); //lille L
 589              		.loc 1 198 0
 590 0002 6C20     		movs	r0, #108
 591 0004 FFF7FEFF 		bl	UART_1_PutChar
 592              	.LVL83:
 199:UART.c        ****     UART_1_WriteTxData(byte1);
 593              		.loc 1 199 0
 594 0008 0020     		movs	r0, #0
 595 000a FFF7FEFF 		bl	UART_1_WriteTxData
 596              	.LVL84:
 200:UART.c        ****     UART_1_WriteTxData(byte2);
 597              		.loc 1 200 0
 598 000e 0020     		movs	r0, #0
 599 0010 FFF7FEFF 		bl	UART_1_WriteTxData
 600              	.LVL85:
 201:UART.c        ****     UART_1_WriteTxData(byte3);
 601              		.loc 1 201 0
 602 0014 0020     		movs	r0, #0
 603 0016 FFF7FEFF 		bl	UART_1_WriteTxData
 604              	.LVL86:
 202:UART.c        ****     UART_1_WriteTxData(byte4);
 605              		.loc 1 202 0
 606 001a 0020     		movs	r0, #0
 607 001c FFF7FEFF 		bl	UART_1_WriteTxData
 608              	.LVL87:
 203:UART.c        ****     UART_1_WriteTxData(byte5);
 609              		.loc 1 203 0
 610 0020 0220     		movs	r0, #2
 611 0022 FFF7FEFF 		bl	UART_1_WriteTxData
 612              	.LVL88:
 204:UART.c        ****     UART_1_WriteTxData(byte6);
 613              		.loc 1 204 0
 614 0026 0620     		movs	r0, #6
 615 0028 FFF7FEFF 		bl	UART_1_WriteTxData
 616              	.LVL89:
 205:UART.c        ****     UART_1_WriteTxData(byte7);
 617              		.loc 1 205 0
 618 002c 0020     		movs	r0, #0
 619 002e FFF7FEFF 		bl	UART_1_WriteTxData
 620              	.LVL90:
 206:UART.c        ****     UART_1_WriteTxData(byte8);
 621              		.loc 1 206 0
 622 0032 0020     		movs	r0, #0
 623 0034 FFF7FEFF 		bl	UART_1_WriteTxData
 624              	.LVL91:
 625 0038 08BD     		pop	{r3, pc}
 626              		.cfi_endproc
 627              	.LFE68:
 628              		.size	UARTLedTest, .-UARTLedTest
 629              		.comm	legalMoves,64,4
 630              		.comm	startChar,1,1
 631              		.comm	end,4,4
 632              		.comm	byteIndex,2,2
 633              		.comm	bitIndex,1,1
 634              		.comm	ledData,192,4
ARM GAS  C:\Users\Simon\AppData\Local\Temp\ccE3FnQR.s 			page 16


 635              		.comm	ledArray,64,4
 636              		.comm	deadLiftPos,1,1
 637              		.comm	liftPos,1,1
 638              		.comm	newPos,1,1
 639              		.comm	deadPieceLifted,1,1
 640              		.comm	pieceLifted,1,1
 641              		.comm	squareReg,64,4
 642              		.comm	lastSquareReg,64,4
 643              		.comm	stepCase,1,1
 644              		.comm	currentSquare,1,1
 645 003a 00BF     		.text
 646              	.Letext0:
 647              		.file 2 "c:\\program files (x86)\\cypress\\psoc creator\\4.4\\psoc creator\\import\\gnu\\arm\\5.4.
 648              		.file 3 "c:\\program files (x86)\\cypress\\psoc creator\\4.4\\psoc creator\\import\\gnu\\arm\\5.4.
 649              		.file 4 "Generated_Source\\PSoC5/core_cm3.h"
 650              		.file 5 "XYPlotter.h"
 651              		.file 6 "Sensor.h"
 652              		.file 7 "LedControl.h"
 653              		.file 8 "UART.h"
 654              		.file 9 "Generated_Source\\PSoC5/UART_1.h"
 655              		.file 10 "Generated_Source\\PSoC5/CyLib.h"
 656              		.file 11 "Generated_Source\\PSoC5/isr_uart_rx.h"