ARM GAS  C:\Users\Simon\AppData\Local\Temp\cch78olc.s 			page 1


   1              		.syntax unified
   2              		.cpu cortex-m3
   3              		.fpu softvfp
   4              		.eabi_attribute 20, 1
   5              		.eabi_attribute 21, 1
   6              		.eabi_attribute 23, 3
   7              		.eabi_attribute 24, 1
   8              		.eabi_attribute 25, 1
   9              		.eabi_attribute 26, 1
  10              		.eabi_attribute 30, 1
  11              		.eabi_attribute 34, 1
  12              		.eabi_attribute 18, 4
  13              		.thumb
  14              		.syntax unified
  15              		.file	"XY_Plotter.c"
  16              		.text
  17              	.Ltext0:
  18              		.cfi_sections	.debug_frame
  19              		.section	.text.calculateSteps,"ax",%progbits
  20              		.align	2
  21              		.global	calculateSteps
  22              		.thumb
  23              		.thumb_func
  24              		.type	calculateSteps, %function
  25              	calculateSteps:
  26              	.LFB64:
  27              		.file 1 "XY_Plotter.c"
   1:XY_Plotter.c  **** /* ========================================
   2:XY_Plotter.c  ****  *
   3:XY_Plotter.c  ****  * Copyright YOUR COMPANY, THE YEAR
   4:XY_Plotter.c  ****  * All Rights Reserved
   5:XY_Plotter.c  ****  * UNPUBLISHED, LICENSED SOFTWARE.
   6:XY_Plotter.c  ****  *
   7:XY_Plotter.c  ****  * CONFIDENTIAL AND PROPRIETARY INFORMATION
   8:XY_Plotter.c  ****  * WHICH IS THE PROPERTY OF your company.
   9:XY_Plotter.c  ****  *
  10:XY_Plotter.c  ****  * ========================================
  11:XY_Plotter.c  **** */
  12:XY_Plotter.c  **** #include "XY_Plotter.h"
  13:XY_Plotter.c  **** #include "stdlib.h"
  14:XY_Plotter.c  **** 
  15:XY_Plotter.c  **** 
  16:XY_Plotter.c  **** struct stepDif {
  17:XY_Plotter.c  ****     int x;
  18:XY_Plotter.c  ****     int y;
  19:XY_Plotter.c  **** };
  20:XY_Plotter.c  **** 
  21:XY_Plotter.c  **** // Funktion til at flytte brik fra fromSquare til toSquare
  22:XY_Plotter.c  **** void moveChessPiece(int fromSquare, int toSquare) {
  23:XY_Plotter.c  ****     // Udtryk for at rykke fra currentSquare til fromSquare
  24:XY_Plotter.c  ****     struct stepDif moveToStart = calculateSteps(currentSquare, fromSquare);
  25:XY_Plotter.c  ****     // Ryk magnet til startposition
  26:XY_Plotter.c  ****     moveMotorX(moveToStart.x);
  27:XY_Plotter.c  ****     moveMotorY(moveToStart.y);
  28:XY_Plotter.c  ****     
  29:XY_Plotter.c  ****     //Tænd magnet her 
  30:XY_Plotter.c  ****     
ARM GAS  C:\Users\Simon\AppData\Local\Temp\cch78olc.s 			page 2


  31:XY_Plotter.c  ****     struct stepDif stepsToMove = calculateSteps(fromSquare, toSquare);
  32:XY_Plotter.c  ****     
  33:XY_Plotter.c  ****     if(stepsToMove.x>=0){     //Positv x
  34:XY_Plotter.c  ****     moveMotorX(0.5);
  35:XY_Plotter.c  ****         if(stepsToMove.y>=0){ //Positv y
  36:XY_Plotter.c  ****             moveMotorY(0.5);
  37:XY_Plotter.c  ****             moveMotorY(stepsToMove.y-1);
  38:XY_Plotter.c  ****             moveMotorX(stepsToMove.x-0.5);
  39:XY_Plotter.c  ****             moveMotorY(0.5);
  40:XY_Plotter.c  ****         }
  41:XY_Plotter.c  ****         else{                 //Negativ y
  42:XY_Plotter.c  ****             moveMotorY(-0.5);
  43:XY_Plotter.c  ****             moveMotorY(stepsToMove.y+1);
  44:XY_Plotter.c  ****             moveMotorX(stepsToMove.x-0.5);
  45:XY_Plotter.c  ****             moveMotorY(-0.5);
  46:XY_Plotter.c  ****         }
  47:XY_Plotter.c  ****     }
  48:XY_Plotter.c  ****     else{                     //Negativ x
  49:XY_Plotter.c  ****     moveMotorX(-0.5);
  50:XY_Plotter.c  ****         if(stepsToMove.y>=0){ //Positv y
  51:XY_Plotter.c  ****             moveMotorY(0.5);
  52:XY_Plotter.c  ****             moveMotorY(stepsToMove.y-1);
  53:XY_Plotter.c  ****             moveMotorX(stepsToMove.x+0.5);
  54:XY_Plotter.c  ****             moveMotorY(0.5);
  55:XY_Plotter.c  ****         }
  56:XY_Plotter.c  ****         else{                 //Negativ y
  57:XY_Plotter.c  ****             moveMotorY(-0.5);
  58:XY_Plotter.c  ****             moveMotorY(stepsToMove.y+1);
  59:XY_Plotter.c  ****             moveMotorX(stepsToMove.x+0.5);
  60:XY_Plotter.c  ****             moveMotorY(-0.5);
  61:XY_Plotter.c  ****         }
  62:XY_Plotter.c  ****     }
  63:XY_Plotter.c  ****     
  64:XY_Plotter.c  ****     //Sluk magnet her
  65:XY_Plotter.c  ****     
  66:XY_Plotter.c  ****     //Opdater magnetens position
  67:XY_Plotter.c  ****     currentSquare = toSquare;
  68:XY_Plotter.c  **** }
  69:XY_Plotter.c  **** 
  70:XY_Plotter.c  **** // Funktion til at beregne antal steps mellem to felter
  71:XY_Plotter.c  **** struct stepDif calculateSteps(int fromSquare, int toSquare) {
  28              		.loc 1 71 0
  29              		.cfi_startproc
  30              		@ args = 0, pretend = 0, frame = 0
  31              		@ frame_needed = 0, uses_anonymous_args = 0
  32              		@ link register save eliminated.
  33              	.LVL0:
  34 0000 30B4     		push	{r4, r5}
  35              		.cfi_def_cfa_offset 8
  36              		.cfi_offset 4, -8
  37              		.cfi_offset 5, -4
  72:XY_Plotter.c  ****     // Beregn x og y for både fromSquare og toSquare
  73:XY_Plotter.c  ****     int fromX = fromSquare % SQUARES_PER_ROW;
  38              		.loc 1 73 0
  39 0002 0F4B     		ldr	r3, .L7
  40 0004 0B40     		ands	r3, r1, r3
  41 0006 03D5     		bpl	.L2
ARM GAS  C:\Users\Simon\AppData\Local\Temp\cch78olc.s 			page 3


  42 0008 013B     		subs	r3, r3, #1
  43 000a 63F00703 		orn	r3, r3, #7
  44 000e 0133     		adds	r3, r3, #1
  45              	.L2:
  46 0010 1C46     		mov	r4, r3
  47              	.LVL1:
  74:XY_Plotter.c  ****     int toX = toSquare % SQUARES_PER_ROW;
  48              		.loc 1 74 0
  49 0012 0B4B     		ldr	r3, .L7
  50              	.LVL2:
  51 0014 1340     		ands	r3, r2, r3
  52 0016 03D5     		bpl	.L3
  53 0018 013B     		subs	r3, r3, #1
  54 001a 63F00703 		orn	r3, r3, #7
  55 001e 0133     		adds	r3, r3, #1
  56              	.L3:
  57              	.LVL3:
  75:XY_Plotter.c  ****     
  76:XY_Plotter.c  ****     int fromY = fromSquare / SQUARES_PER_ROW;
  58              		.loc 1 76 0
  59 0020 0D46     		mov	r5, r1
  60 0022 0029     		cmp	r1, #0
  61 0024 00DA     		bge	.L4
  62 0026 CD1D     		adds	r5, r1, #7
  63              	.L4:
  64 0028 ED10     		asrs	r5, r5, #3
  65              	.LVL4:
  77:XY_Plotter.c  ****     int toY = toSquare / SQUARES_PER_ROW;
  66              		.loc 1 77 0
  67 002a 1146     		mov	r1, r2
  68              	.LVL5:
  69 002c 002A     		cmp	r2, #0
  70 002e 00DA     		bge	.L5
  71              	.LVL6:
  72 0030 D11D     		adds	r1, r2, #7
  73              	.LVL7:
  74              	.L5:
  78:XY_Plotter.c  ****     
  79:XY_Plotter.c  ****     // Beregn række- og kolonneforskellen
  80:XY_Plotter.c  ****     struct stepDif dif;
  81:XY_Plotter.c  ****     dif.x = (toX - fromX);
  75              		.loc 1 81 0
  76 0032 1B1B     		subs	r3, r3, r4
  77              	.LVL8:
  78 0034 0360     		str	r3, [r0]
  82:XY_Plotter.c  ****     dif.y = (toY - fromY);
  79              		.loc 1 82 0
  80 0036 C5EBE105 		rsb	r5, r5, r1, asr #3
  81              	.LVL9:
  82 003a 4560     		str	r5, [r0, #4]
  83:XY_Plotter.c  ****     return dif;
  84:XY_Plotter.c  **** }
  83              		.loc 1 84 0
  84 003c 30BC     		pop	{r4, r5}
  85              		.cfi_restore 5
  86              		.cfi_restore 4
  87              		.cfi_def_cfa_offset 0
ARM GAS  C:\Users\Simon\AppData\Local\Temp\cch78olc.s 			page 4


  88              	.LVL10:
  89 003e 7047     		bx	lr
  90              	.L8:
  91              		.align	2
  92              	.L7:
  93 0040 07000080 		.word	-2147483641
  94              		.cfi_endproc
  95              	.LFE64:
  96              		.size	calculateSteps, .-calculateSteps
  97              		.global	__aeabi_fmul
  98              		.global	__aeabi_f2iz
  99              		.section	.text.moveMotorX,"ax",%progbits
 100              		.align	2
 101              		.global	moveMotorX
 102              		.thumb
 103              		.thumb_func
 104              		.type	moveMotorX, %function
 105              	moveMotorX:
 106              	.LFB65:
  85:XY_Plotter.c  **** 
  86:XY_Plotter.c  **** 
  87:XY_Plotter.c  **** // Funktion til at styre steppermotor x
  88:XY_Plotter.c  **** void moveMotorX(float squares) {
 107              		.loc 1 88 0
 108              		.cfi_startproc
 109              		@ args = 0, pretend = 0, frame = 0
 110              		@ frame_needed = 0, uses_anonymous_args = 0
 111              	.LVL11:
 112 0000 38B5     		push	{r3, r4, r5, lr}
 113              		.cfi_def_cfa_offset 16
 114              		.cfi_offset 3, -16
 115              		.cfi_offset 4, -12
 116              		.cfi_offset 5, -8
 117              		.cfi_offset 14, -4
  89:XY_Plotter.c  ****     int moveSteps = squares * STEPS_PER_SQUARE;
 118              		.loc 1 89 0
 119 0002 6149     		ldr	r1, .L25
 120 0004 FFF7FEFF 		bl	__aeabi_fmul
 121              	.LVL12:
 122 0008 FFF7FEFF 		bl	__aeabi_f2iz
 123              	.LVL13:
 124 000c 0546     		mov	r5, r0
 125              	.LVL14:
 126              	.LBB2:
  90:XY_Plotter.c  **** 	for(int i = 0; i < abs(moveSteps); i++){
 127              		.loc 1 90 0
 128 000e 0024     		movs	r4, #0
 129 0010 B2E0     		b	.L10
 130              	.LVL15:
 131              	.L23:
  91:XY_Plotter.c  **** 		if (moveSteps > 0){  //positiv retning?(med uret)
 132              		.loc 1 91 0
 133 0012 002D     		cmp	r5, #0
 134 0014 58DD     		ble	.L11
  92:XY_Plotter.c  ****             switch(stepCase){
 135              		.loc 1 92 0
 136 0016 5D4B     		ldr	r3, .L25+4
ARM GAS  C:\Users\Simon\AppData\Local\Temp\cch78olc.s 			page 5


 137 0018 1B68     		ldr	r3, [r3]
 138 001a 013B     		subs	r3, r3, #1
 139 001c 032B     		cmp	r3, #3
 140 001e 00F2AA80 		bhi	.L12
 141 0022 DFE803F0 		tbb	[pc, r3]
 142              	.L14:
 143 0026 02       		.byte	(.L13-.L14)/2
 144 0027 16       		.byte	(.L15-.L14)/2
 145 0028 2A       		.byte	(.L16-.L14)/2
 146 0029 3E       		.byte	(.L17-.L14)/2
 147              		.p2align 1
 148              	.L13:
  93:XY_Plotter.c  ****                 case 1:
  94:XY_Plotter.c  ****                 P2_3_Write(1); //P1.1
 149              		.loc 1 94 0
 150 002a 0120     		movs	r0, #1
 151 002c FFF7FEFF 		bl	P2_3_Write
 152              	.LVL16:
  95:XY_Plotter.c  ****                 P2_4_Write(0); //P2.1
 153              		.loc 1 95 0
 154 0030 0020     		movs	r0, #0
 155 0032 FFF7FEFF 		bl	P2_4_Write
 156              	.LVL17:
  96:XY_Plotter.c  ****                 P2_5_Write(0); //P1.2
 157              		.loc 1 96 0
 158 0036 0020     		movs	r0, #0
 159 0038 FFF7FEFF 		bl	P2_5_Write
 160              	.LVL18:
  97:XY_Plotter.c  ****                 P2_6_Write(0); //P2.2
 161              		.loc 1 97 0
 162 003c 0020     		movs	r0, #0
 163 003e FFF7FEFF 		bl	P2_6_Write
 164              	.LVL19:
  98:XY_Plotter.c  ****                 stepCase++;
 165              		.loc 1 98 0
 166 0042 524A     		ldr	r2, .L25+4
 167 0044 1368     		ldr	r3, [r2]
 168 0046 0133     		adds	r3, r3, #1
 169 0048 1360     		str	r3, [r2]
  99:XY_Plotter.c  ****                 CyDelay(stepperWait);
 170              		.loc 1 99 0
 171 004a 0A20     		movs	r0, #10
 172 004c FFF7FEFF 		bl	CyDelay
 173              	.LVL20:
 100:XY_Plotter.c  ****                 break;
 174              		.loc 1 100 0
 175 0050 91E0     		b	.L12
 176              	.L15:
 101:XY_Plotter.c  ****                 case 2:
 102:XY_Plotter.c  ****                 P2_3_Write(0); 
 177              		.loc 1 102 0
 178 0052 0020     		movs	r0, #0
 179 0054 FFF7FEFF 		bl	P2_3_Write
 180              	.LVL21:
 103:XY_Plotter.c  ****                 P2_4_Write(1);
 181              		.loc 1 103 0
 182 0058 0120     		movs	r0, #1
ARM GAS  C:\Users\Simon\AppData\Local\Temp\cch78olc.s 			page 6


 183 005a FFF7FEFF 		bl	P2_4_Write
 184              	.LVL22:
 104:XY_Plotter.c  ****                 P2_5_Write(0);
 185              		.loc 1 104 0
 186 005e 0020     		movs	r0, #0
 187 0060 FFF7FEFF 		bl	P2_5_Write
 188              	.LVL23:
 105:XY_Plotter.c  ****                 P2_6_Write(0);
 189              		.loc 1 105 0
 190 0064 0020     		movs	r0, #0
 191 0066 FFF7FEFF 		bl	P2_6_Write
 192              	.LVL24:
 106:XY_Plotter.c  ****                 stepCase++;
 193              		.loc 1 106 0
 194 006a 484A     		ldr	r2, .L25+4
 195 006c 1368     		ldr	r3, [r2]
 196 006e 0133     		adds	r3, r3, #1
 197 0070 1360     		str	r3, [r2]
 107:XY_Plotter.c  ****                 CyDelay(stepperWait);
 198              		.loc 1 107 0
 199 0072 0A20     		movs	r0, #10
 200 0074 FFF7FEFF 		bl	CyDelay
 201              	.LVL25:
 108:XY_Plotter.c  ****                 break;
 202              		.loc 1 108 0
 203 0078 7DE0     		b	.L12
 204              	.L16:
 109:XY_Plotter.c  ****                 case 3:
 110:XY_Plotter.c  ****                 P2_3_Write(0);
 205              		.loc 1 110 0
 206 007a 0020     		movs	r0, #0
 207 007c FFF7FEFF 		bl	P2_3_Write
 208              	.LVL26:
 111:XY_Plotter.c  ****                 P2_4_Write(0);
 209              		.loc 1 111 0
 210 0080 0020     		movs	r0, #0
 211 0082 FFF7FEFF 		bl	P2_4_Write
 212              	.LVL27:
 112:XY_Plotter.c  ****                 P2_5_Write(1);
 213              		.loc 1 112 0
 214 0086 0120     		movs	r0, #1
 215 0088 FFF7FEFF 		bl	P2_5_Write
 216              	.LVL28:
 113:XY_Plotter.c  ****                 P2_6_Write(0);
 217              		.loc 1 113 0
 218 008c 0020     		movs	r0, #0
 219 008e FFF7FEFF 		bl	P2_6_Write
 220              	.LVL29:
 114:XY_Plotter.c  ****                 stepCase++;
 221              		.loc 1 114 0
 222 0092 3E4A     		ldr	r2, .L25+4
 223 0094 1368     		ldr	r3, [r2]
 224 0096 0133     		adds	r3, r3, #1
 225 0098 1360     		str	r3, [r2]
 115:XY_Plotter.c  ****                 CyDelay(stepperWait);
 226              		.loc 1 115 0
 227 009a 0A20     		movs	r0, #10
ARM GAS  C:\Users\Simon\AppData\Local\Temp\cch78olc.s 			page 7


 228 009c FFF7FEFF 		bl	CyDelay
 229              	.LVL30:
 116:XY_Plotter.c  ****                 break;
 230              		.loc 1 116 0
 231 00a0 69E0     		b	.L12
 232              	.L17:
 117:XY_Plotter.c  ****                 case 4:
 118:XY_Plotter.c  ****                 P2_3_Write(0);
 233              		.loc 1 118 0
 234 00a2 0020     		movs	r0, #0
 235 00a4 FFF7FEFF 		bl	P2_3_Write
 236              	.LVL31:
 119:XY_Plotter.c  ****                 P2_4_Write(0);
 237              		.loc 1 119 0
 238 00a8 0020     		movs	r0, #0
 239 00aa FFF7FEFF 		bl	P2_4_Write
 240              	.LVL32:
 120:XY_Plotter.c  ****                 P2_5_Write(0);
 241              		.loc 1 120 0
 242 00ae 0020     		movs	r0, #0
 243 00b0 FFF7FEFF 		bl	P2_5_Write
 244              	.LVL33:
 121:XY_Plotter.c  ****                 P2_6_Write(1);
 245              		.loc 1 121 0
 246 00b4 0120     		movs	r0, #1
 247 00b6 FFF7FEFF 		bl	P2_6_Write
 248              	.LVL34:
 122:XY_Plotter.c  ****                 CyDelay(stepperWait);
 249              		.loc 1 122 0
 250 00ba 0A20     		movs	r0, #10
 251 00bc FFF7FEFF 		bl	CyDelay
 252              	.LVL35:
 123:XY_Plotter.c  ****                 stepCase = 1; //reset stepCase
 253              		.loc 1 123 0
 254 00c0 0122     		movs	r2, #1
 255 00c2 324B     		ldr	r3, .L25+4
 256 00c4 1A60     		str	r2, [r3]
 124:XY_Plotter.c  ****                 break;
 257              		.loc 1 124 0
 258 00c6 56E0     		b	.L12
 259              	.L11:
 125:XY_Plotter.c  ****             }
 126:XY_Plotter.c  **** 		}
 127:XY_Plotter.c  **** 		else{               //negativ retning?(mod uret)
 128:XY_Plotter.c  ****             switch(stepCase){
 260              		.loc 1 128 0
 261 00c8 304B     		ldr	r3, .L25+4
 262 00ca 1B68     		ldr	r3, [r3]
 263 00cc 013B     		subs	r3, r3, #1
 264 00ce 032B     		cmp	r3, #3
 265 00d0 51D8     		bhi	.L12
 266 00d2 DFE803F0 		tbb	[pc, r3]
 267              	.L19:
 268 00d6 3E       		.byte	(.L18-.L19)/2
 269 00d7 2A       		.byte	(.L20-.L19)/2
 270 00d8 16       		.byte	(.L21-.L19)/2
 271 00d9 02       		.byte	(.L22-.L19)/2
ARM GAS  C:\Users\Simon\AppData\Local\Temp\cch78olc.s 			page 8


 272              		.p2align 1
 273              	.L22:
 129:XY_Plotter.c  ****                 case 4:
 130:XY_Plotter.c  ****                 P2_3_Write(0);
 274              		.loc 1 130 0
 275 00da 0020     		movs	r0, #0
 276 00dc FFF7FEFF 		bl	P2_3_Write
 277              	.LVL36:
 131:XY_Plotter.c  ****                 P2_4_Write(0);
 278              		.loc 1 131 0
 279 00e0 0020     		movs	r0, #0
 280 00e2 FFF7FEFF 		bl	P2_4_Write
 281              	.LVL37:
 132:XY_Plotter.c  ****                 P2_5_Write(0);
 282              		.loc 1 132 0
 283 00e6 0020     		movs	r0, #0
 284 00e8 FFF7FEFF 		bl	P2_5_Write
 285              	.LVL38:
 133:XY_Plotter.c  ****                 P2_6_Write(1);
 286              		.loc 1 133 0
 287 00ec 0120     		movs	r0, #1
 288 00ee FFF7FEFF 		bl	P2_6_Write
 289              	.LVL39:
 134:XY_Plotter.c  ****                 stepCase--;
 290              		.loc 1 134 0
 291 00f2 264A     		ldr	r2, .L25+4
 292 00f4 1368     		ldr	r3, [r2]
 293 00f6 013B     		subs	r3, r3, #1
 294 00f8 1360     		str	r3, [r2]
 135:XY_Plotter.c  ****                 CyDelay(stepperWait);
 295              		.loc 1 135 0
 296 00fa 0A20     		movs	r0, #10
 297 00fc FFF7FEFF 		bl	CyDelay
 298              	.LVL40:
 136:XY_Plotter.c  ****                 break;
 299              		.loc 1 136 0
 300 0100 39E0     		b	.L12
 301              	.L21:
 137:XY_Plotter.c  ****                 case 3:
 138:XY_Plotter.c  ****                 P2_3_Write(0);
 302              		.loc 1 138 0
 303 0102 0020     		movs	r0, #0
 304 0104 FFF7FEFF 		bl	P2_3_Write
 305              	.LVL41:
 139:XY_Plotter.c  ****                 P2_4_Write(0);
 306              		.loc 1 139 0
 307 0108 0020     		movs	r0, #0
 308 010a FFF7FEFF 		bl	P2_4_Write
 309              	.LVL42:
 140:XY_Plotter.c  ****                 P2_5_Write(1);
 310              		.loc 1 140 0
 311 010e 0120     		movs	r0, #1
 312 0110 FFF7FEFF 		bl	P2_5_Write
 313              	.LVL43:
 141:XY_Plotter.c  ****                 P2_6_Write(0);
 314              		.loc 1 141 0
 315 0114 0020     		movs	r0, #0
ARM GAS  C:\Users\Simon\AppData\Local\Temp\cch78olc.s 			page 9


 316 0116 FFF7FEFF 		bl	P2_6_Write
 317              	.LVL44:
 142:XY_Plotter.c  ****                 stepCase--;
 318              		.loc 1 142 0
 319 011a 1C4A     		ldr	r2, .L25+4
 320 011c 1368     		ldr	r3, [r2]
 321 011e 013B     		subs	r3, r3, #1
 322 0120 1360     		str	r3, [r2]
 143:XY_Plotter.c  ****                 CyDelay(stepperWait);
 323              		.loc 1 143 0
 324 0122 0A20     		movs	r0, #10
 325 0124 FFF7FEFF 		bl	CyDelay
 326              	.LVL45:
 144:XY_Plotter.c  ****                 break;
 327              		.loc 1 144 0
 328 0128 25E0     		b	.L12
 329              	.L20:
 145:XY_Plotter.c  ****                 case 2:
 146:XY_Plotter.c  ****                 P2_3_Write(0);
 330              		.loc 1 146 0
 331 012a 0020     		movs	r0, #0
 332 012c FFF7FEFF 		bl	P2_3_Write
 333              	.LVL46:
 147:XY_Plotter.c  ****                 P2_4_Write(1);
 334              		.loc 1 147 0
 335 0130 0120     		movs	r0, #1
 336 0132 FFF7FEFF 		bl	P2_4_Write
 337              	.LVL47:
 148:XY_Plotter.c  ****                 P2_5_Write(0);
 338              		.loc 1 148 0
 339 0136 0020     		movs	r0, #0
 340 0138 FFF7FEFF 		bl	P2_5_Write
 341              	.LVL48:
 149:XY_Plotter.c  ****                 P2_6_Write(0);
 342              		.loc 1 149 0
 343 013c 0020     		movs	r0, #0
 344 013e FFF7FEFF 		bl	P2_6_Write
 345              	.LVL49:
 150:XY_Plotter.c  ****                 stepCase--;
 346              		.loc 1 150 0
 347 0142 124A     		ldr	r2, .L25+4
 348 0144 1368     		ldr	r3, [r2]
 349 0146 013B     		subs	r3, r3, #1
 350 0148 1360     		str	r3, [r2]
 151:XY_Plotter.c  ****                 CyDelay(stepperWait);
 351              		.loc 1 151 0
 352 014a 0A20     		movs	r0, #10
 353 014c FFF7FEFF 		bl	CyDelay
 354              	.LVL50:
 152:XY_Plotter.c  ****                 break;
 355              		.loc 1 152 0
 356 0150 11E0     		b	.L12
 357              	.L18:
 153:XY_Plotter.c  ****                 case 1:
 154:XY_Plotter.c  ****                 P2_3_Write(1);
 358              		.loc 1 154 0
 359 0152 0120     		movs	r0, #1
ARM GAS  C:\Users\Simon\AppData\Local\Temp\cch78olc.s 			page 10


 360 0154 FFF7FEFF 		bl	P2_3_Write
 361              	.LVL51:
 155:XY_Plotter.c  ****                 P2_4_Write(0);
 362              		.loc 1 155 0
 363 0158 0020     		movs	r0, #0
 364 015a FFF7FEFF 		bl	P2_4_Write
 365              	.LVL52:
 156:XY_Plotter.c  ****                 P2_5_Write(0);
 366              		.loc 1 156 0
 367 015e 0020     		movs	r0, #0
 368 0160 FFF7FEFF 		bl	P2_5_Write
 369              	.LVL53:
 157:XY_Plotter.c  ****                 P2_6_Write(0);
 370              		.loc 1 157 0
 371 0164 0020     		movs	r0, #0
 372 0166 FFF7FEFF 		bl	P2_6_Write
 373              	.LVL54:
 158:XY_Plotter.c  ****                 stepCase = 4; //reset stepcase
 374              		.loc 1 158 0
 375 016a 0422     		movs	r2, #4
 376 016c 074B     		ldr	r3, .L25+4
 377 016e 1A60     		str	r2, [r3]
 159:XY_Plotter.c  ****                 CyDelay(stepperWait);
 378              		.loc 1 159 0
 379 0170 0A20     		movs	r0, #10
 380 0172 FFF7FEFF 		bl	CyDelay
 381              	.LVL55:
 382              	.L12:
  90:XY_Plotter.c  **** 		if (moveSteps > 0){  //positiv retning?(med uret)
 383              		.loc 1 90 0 discriminator 2
 384 0176 0134     		adds	r4, r4, #1
 385              	.LVL56:
 386              	.L10:
  90:XY_Plotter.c  **** 		if (moveSteps > 0){  //positiv retning?(med uret)
 387              		.loc 1 90 0 is_stmt 0 discriminator 1
 388 0178 85EAE573 		eor	r3, r5, r5, asr #31
 389 017c A3EBE573 		sub	r3, r3, r5, asr #31
 390 0180 9C42     		cmp	r4, r3
 391 0182 FFF646AF 		blt	.L23
 392              	.LBE2:
 160:XY_Plotter.c  ****                 break;
 161:XY_Plotter.c  ****             }
 162:XY_Plotter.c  **** 		}
 163:XY_Plotter.c  **** 	}
 164:XY_Plotter.c  **** }
 393              		.loc 1 164 0 is_stmt 1
 394 0186 38BD     		pop	{r3, r4, r5, pc}
 395              	.LVL57:
 396              	.L26:
 397              		.align	2
 398              	.L25:
 399 0188 00006643 		.word	1130758144
 400 018c 00000000 		.word	stepCase
 401              		.cfi_endproc
 402              	.LFE65:
 403              		.size	moveMotorX, .-moveMotorX
 404              		.section	.text.moveMotorY,"ax",%progbits
ARM GAS  C:\Users\Simon\AppData\Local\Temp\cch78olc.s 			page 11


 405              		.align	2
 406              		.global	moveMotorY
 407              		.thumb
 408              		.thumb_func
 409              		.type	moveMotorY, %function
 410              	moveMotorY:
 411              	.LFB66:
 165:XY_Plotter.c  **** // Funktion til at styre steppermotor y
 166:XY_Plotter.c  **** void moveMotorY(float squares) {
 412              		.loc 1 166 0
 413              		.cfi_startproc
 414              		@ args = 0, pretend = 0, frame = 0
 415              		@ frame_needed = 0, uses_anonymous_args = 0
 416              	.LVL58:
 417 0000 38B5     		push	{r3, r4, r5, lr}
 418              		.cfi_def_cfa_offset 16
 419              		.cfi_offset 3, -16
 420              		.cfi_offset 4, -12
 421              		.cfi_offset 5, -8
 422              		.cfi_offset 14, -4
 167:XY_Plotter.c  ****     int moveSteps = squares * STEPS_PER_SQUARE;
 423              		.loc 1 167 0
 424 0002 6149     		ldr	r1, .L43
 425 0004 FFF7FEFF 		bl	__aeabi_fmul
 426              	.LVL59:
 427 0008 FFF7FEFF 		bl	__aeabi_f2iz
 428              	.LVL60:
 429 000c 0546     		mov	r5, r0
 430              	.LVL61:
 431              	.LBB3:
 168:XY_Plotter.c  **** 	for(int i = 0; i < abs(moveSteps); i++){
 432              		.loc 1 168 0
 433 000e 0024     		movs	r4, #0
 434 0010 B2E0     		b	.L28
 435              	.LVL62:
 436              	.L41:
 169:XY_Plotter.c  **** 		if (moveSteps > 0){  //positiv retning?(med uret)
 437              		.loc 1 169 0
 438 0012 002D     		cmp	r5, #0
 439 0014 58DD     		ble	.L29
 170:XY_Plotter.c  ****             switch(stepCase){
 440              		.loc 1 170 0
 441 0016 5D4B     		ldr	r3, .L43+4
 442 0018 1B68     		ldr	r3, [r3]
 443 001a 013B     		subs	r3, r3, #1
 444 001c 032B     		cmp	r3, #3
 445 001e 00F2AA80 		bhi	.L30
 446 0022 DFE803F0 		tbb	[pc, r3]
 447              	.L32:
 448 0026 02       		.byte	(.L31-.L32)/2
 449 0027 16       		.byte	(.L33-.L32)/2
 450 0028 2A       		.byte	(.L34-.L32)/2
 451 0029 3E       		.byte	(.L35-.L32)/2
 452              		.p2align 1
 453              	.L31:
 171:XY_Plotter.c  ****                 case 1:
 172:XY_Plotter.c  ****                 P3_3_Write(1); //P1.1
ARM GAS  C:\Users\Simon\AppData\Local\Temp\cch78olc.s 			page 12


 454              		.loc 1 172 0
 455 002a 0120     		movs	r0, #1
 456 002c FFF7FEFF 		bl	P3_3_Write
 457              	.LVL63:
 173:XY_Plotter.c  ****                 P3_4_Write(0); //P3.1
 458              		.loc 1 173 0
 459 0030 0020     		movs	r0, #0
 460 0032 FFF7FEFF 		bl	P3_4_Write
 461              	.LVL64:
 174:XY_Plotter.c  ****                 P3_5_Write(0); //P1.2
 462              		.loc 1 174 0
 463 0036 0020     		movs	r0, #0
 464 0038 FFF7FEFF 		bl	P3_5_Write
 465              	.LVL65:
 175:XY_Plotter.c  ****                 P3_6_Write(0); //P3.2
 466              		.loc 1 175 0
 467 003c 0020     		movs	r0, #0
 468 003e FFF7FEFF 		bl	P3_6_Write
 469              	.LVL66:
 176:XY_Plotter.c  ****                 stepCase++;
 470              		.loc 1 176 0
 471 0042 524A     		ldr	r2, .L43+4
 472 0044 1368     		ldr	r3, [r2]
 473 0046 0133     		adds	r3, r3, #1
 474 0048 1360     		str	r3, [r2]
 177:XY_Plotter.c  ****                 CyDelay(stepperWait);
 475              		.loc 1 177 0
 476 004a 0A20     		movs	r0, #10
 477 004c FFF7FEFF 		bl	CyDelay
 478              	.LVL67:
 178:XY_Plotter.c  ****                 break;
 479              		.loc 1 178 0
 480 0050 91E0     		b	.L30
 481              	.L33:
 179:XY_Plotter.c  ****                 case 2:
 180:XY_Plotter.c  ****                 P3_3_Write(0); 
 482              		.loc 1 180 0
 483 0052 0020     		movs	r0, #0
 484 0054 FFF7FEFF 		bl	P3_3_Write
 485              	.LVL68:
 181:XY_Plotter.c  ****                 P3_4_Write(1);
 486              		.loc 1 181 0
 487 0058 0120     		movs	r0, #1
 488 005a FFF7FEFF 		bl	P3_4_Write
 489              	.LVL69:
 182:XY_Plotter.c  ****                 P3_5_Write(0);
 490              		.loc 1 182 0
 491 005e 0020     		movs	r0, #0
 492 0060 FFF7FEFF 		bl	P3_5_Write
 493              	.LVL70:
 183:XY_Plotter.c  ****                 P3_6_Write(0);
 494              		.loc 1 183 0
 495 0064 0020     		movs	r0, #0
 496 0066 FFF7FEFF 		bl	P3_6_Write
 497              	.LVL71:
 184:XY_Plotter.c  ****                 stepCase++;
 498              		.loc 1 184 0
ARM GAS  C:\Users\Simon\AppData\Local\Temp\cch78olc.s 			page 13


 499 006a 484A     		ldr	r2, .L43+4
 500 006c 1368     		ldr	r3, [r2]
 501 006e 0133     		adds	r3, r3, #1
 502 0070 1360     		str	r3, [r2]
 185:XY_Plotter.c  ****                 CyDelay(stepperWait);
 503              		.loc 1 185 0
 504 0072 0A20     		movs	r0, #10
 505 0074 FFF7FEFF 		bl	CyDelay
 506              	.LVL72:
 186:XY_Plotter.c  ****                 break;
 507              		.loc 1 186 0
 508 0078 7DE0     		b	.L30
 509              	.L34:
 187:XY_Plotter.c  ****                 case 3:
 188:XY_Plotter.c  ****                 P3_3_Write(0);
 510              		.loc 1 188 0
 511 007a 0020     		movs	r0, #0
 512 007c FFF7FEFF 		bl	P3_3_Write
 513              	.LVL73:
 189:XY_Plotter.c  ****                 P3_4_Write(0);
 514              		.loc 1 189 0
 515 0080 0020     		movs	r0, #0
 516 0082 FFF7FEFF 		bl	P3_4_Write
 517              	.LVL74:
 190:XY_Plotter.c  ****                 P3_5_Write(1);
 518              		.loc 1 190 0
 519 0086 0120     		movs	r0, #1
 520 0088 FFF7FEFF 		bl	P3_5_Write
 521              	.LVL75:
 191:XY_Plotter.c  ****                 P3_6_Write(0);
 522              		.loc 1 191 0
 523 008c 0020     		movs	r0, #0
 524 008e FFF7FEFF 		bl	P3_6_Write
 525              	.LVL76:
 192:XY_Plotter.c  ****                 stepCase++;
 526              		.loc 1 192 0
 527 0092 3E4A     		ldr	r2, .L43+4
 528 0094 1368     		ldr	r3, [r2]
 529 0096 0133     		adds	r3, r3, #1
 530 0098 1360     		str	r3, [r2]
 193:XY_Plotter.c  ****                 CyDelay(stepperWait);
 531              		.loc 1 193 0
 532 009a 0A20     		movs	r0, #10
 533 009c FFF7FEFF 		bl	CyDelay
 534              	.LVL77:
 194:XY_Plotter.c  ****                 break;
 535              		.loc 1 194 0
 536 00a0 69E0     		b	.L30
 537              	.L35:
 195:XY_Plotter.c  ****                 case 4:
 196:XY_Plotter.c  ****                 P3_3_Write(0);
 538              		.loc 1 196 0
 539 00a2 0020     		movs	r0, #0
 540 00a4 FFF7FEFF 		bl	P3_3_Write
 541              	.LVL78:
 197:XY_Plotter.c  ****                 P3_4_Write(0);
 542              		.loc 1 197 0
ARM GAS  C:\Users\Simon\AppData\Local\Temp\cch78olc.s 			page 14


 543 00a8 0020     		movs	r0, #0
 544 00aa FFF7FEFF 		bl	P3_4_Write
 545              	.LVL79:
 198:XY_Plotter.c  ****                 P3_5_Write(0);
 546              		.loc 1 198 0
 547 00ae 0020     		movs	r0, #0
 548 00b0 FFF7FEFF 		bl	P3_5_Write
 549              	.LVL80:
 199:XY_Plotter.c  ****                 P3_6_Write(1);
 550              		.loc 1 199 0
 551 00b4 0120     		movs	r0, #1
 552 00b6 FFF7FEFF 		bl	P3_6_Write
 553              	.LVL81:
 200:XY_Plotter.c  ****                 CyDelay(stepperWait);
 554              		.loc 1 200 0
 555 00ba 0A20     		movs	r0, #10
 556 00bc FFF7FEFF 		bl	CyDelay
 557              	.LVL82:
 201:XY_Plotter.c  ****                 stepCase = 1; //reset stepCase
 558              		.loc 1 201 0
 559 00c0 0122     		movs	r2, #1
 560 00c2 324B     		ldr	r3, .L43+4
 561 00c4 1A60     		str	r2, [r3]
 202:XY_Plotter.c  ****                 break;
 562              		.loc 1 202 0
 563 00c6 56E0     		b	.L30
 564              	.L29:
 203:XY_Plotter.c  ****             }
 204:XY_Plotter.c  **** 		}
 205:XY_Plotter.c  **** 		else{               //negativ retning?(mod uret)
 206:XY_Plotter.c  ****             switch(stepCase){
 565              		.loc 1 206 0
 566 00c8 304B     		ldr	r3, .L43+4
 567 00ca 1B68     		ldr	r3, [r3]
 568 00cc 013B     		subs	r3, r3, #1
 569 00ce 032B     		cmp	r3, #3
 570 00d0 51D8     		bhi	.L30
 571 00d2 DFE803F0 		tbb	[pc, r3]
 572              	.L37:
 573 00d6 3E       		.byte	(.L36-.L37)/2
 574 00d7 2A       		.byte	(.L38-.L37)/2
 575 00d8 16       		.byte	(.L39-.L37)/2
 576 00d9 02       		.byte	(.L40-.L37)/2
 577              		.p2align 1
 578              	.L40:
 207:XY_Plotter.c  ****                 case 4:
 208:XY_Plotter.c  ****                 P3_3_Write(0);
 579              		.loc 1 208 0
 580 00da 0020     		movs	r0, #0
 581 00dc FFF7FEFF 		bl	P3_3_Write
 582              	.LVL83:
 209:XY_Plotter.c  ****                 P3_4_Write(0);
 583              		.loc 1 209 0
 584 00e0 0020     		movs	r0, #0
 585 00e2 FFF7FEFF 		bl	P3_4_Write
 586              	.LVL84:
 210:XY_Plotter.c  ****                 P3_5_Write(0);
ARM GAS  C:\Users\Simon\AppData\Local\Temp\cch78olc.s 			page 15


 587              		.loc 1 210 0
 588 00e6 0020     		movs	r0, #0
 589 00e8 FFF7FEFF 		bl	P3_5_Write
 590              	.LVL85:
 211:XY_Plotter.c  ****                 P3_6_Write(1);
 591              		.loc 1 211 0
 592 00ec 0120     		movs	r0, #1
 593 00ee FFF7FEFF 		bl	P3_6_Write
 594              	.LVL86:
 212:XY_Plotter.c  ****                 stepCase--;
 595              		.loc 1 212 0
 596 00f2 264A     		ldr	r2, .L43+4
 597 00f4 1368     		ldr	r3, [r2]
 598 00f6 013B     		subs	r3, r3, #1
 599 00f8 1360     		str	r3, [r2]
 213:XY_Plotter.c  ****                 CyDelay(stepperWait);
 600              		.loc 1 213 0
 601 00fa 0A20     		movs	r0, #10
 602 00fc FFF7FEFF 		bl	CyDelay
 603              	.LVL87:
 214:XY_Plotter.c  ****                 break;
 604              		.loc 1 214 0
 605 0100 39E0     		b	.L30
 606              	.L39:
 215:XY_Plotter.c  ****                 case 3:
 216:XY_Plotter.c  ****                 P3_3_Write(0);
 607              		.loc 1 216 0
 608 0102 0020     		movs	r0, #0
 609 0104 FFF7FEFF 		bl	P3_3_Write
 610              	.LVL88:
 217:XY_Plotter.c  ****                 P3_4_Write(0);
 611              		.loc 1 217 0
 612 0108 0020     		movs	r0, #0
 613 010a FFF7FEFF 		bl	P3_4_Write
 614              	.LVL89:
 218:XY_Plotter.c  ****                 P3_5_Write(1);
 615              		.loc 1 218 0
 616 010e 0120     		movs	r0, #1
 617 0110 FFF7FEFF 		bl	P3_5_Write
 618              	.LVL90:
 219:XY_Plotter.c  ****                 P3_6_Write(0);
 619              		.loc 1 219 0
 620 0114 0020     		movs	r0, #0
 621 0116 FFF7FEFF 		bl	P3_6_Write
 622              	.LVL91:
 220:XY_Plotter.c  ****                 stepCase--;
 623              		.loc 1 220 0
 624 011a 1C4A     		ldr	r2, .L43+4
 625 011c 1368     		ldr	r3, [r2]
 626 011e 013B     		subs	r3, r3, #1
 627 0120 1360     		str	r3, [r2]
 221:XY_Plotter.c  ****                 CyDelay(stepperWait);
 628              		.loc 1 221 0
 629 0122 0A20     		movs	r0, #10
 630 0124 FFF7FEFF 		bl	CyDelay
 631              	.LVL92:
 222:XY_Plotter.c  ****                 break;
ARM GAS  C:\Users\Simon\AppData\Local\Temp\cch78olc.s 			page 16


 632              		.loc 1 222 0
 633 0128 25E0     		b	.L30
 634              	.L38:
 223:XY_Plotter.c  ****                 case 2:
 224:XY_Plotter.c  ****                 P3_3_Write(0);
 635              		.loc 1 224 0
 636 012a 0020     		movs	r0, #0
 637 012c FFF7FEFF 		bl	P3_3_Write
 638              	.LVL93:
 225:XY_Plotter.c  ****                 P3_4_Write(1);
 639              		.loc 1 225 0
 640 0130 0120     		movs	r0, #1
 641 0132 FFF7FEFF 		bl	P3_4_Write
 642              	.LVL94:
 226:XY_Plotter.c  ****                 P3_5_Write(0);
 643              		.loc 1 226 0
 644 0136 0020     		movs	r0, #0
 645 0138 FFF7FEFF 		bl	P3_5_Write
 646              	.LVL95:
 227:XY_Plotter.c  ****                 P3_6_Write(0);
 647              		.loc 1 227 0
 648 013c 0020     		movs	r0, #0
 649 013e FFF7FEFF 		bl	P3_6_Write
 650              	.LVL96:
 228:XY_Plotter.c  ****                 stepCase--;
 651              		.loc 1 228 0
 652 0142 124A     		ldr	r2, .L43+4
 653 0144 1368     		ldr	r3, [r2]
 654 0146 013B     		subs	r3, r3, #1
 655 0148 1360     		str	r3, [r2]
 229:XY_Plotter.c  ****                 CyDelay(stepperWait);
 656              		.loc 1 229 0
 657 014a 0A20     		movs	r0, #10
 658 014c FFF7FEFF 		bl	CyDelay
 659              	.LVL97:
 230:XY_Plotter.c  ****                 break;
 660              		.loc 1 230 0
 661 0150 11E0     		b	.L30
 662              	.L36:
 231:XY_Plotter.c  ****                 case 1:
 232:XY_Plotter.c  ****                 P3_3_Write(1);
 663              		.loc 1 232 0
 664 0152 0120     		movs	r0, #1
 665 0154 FFF7FEFF 		bl	P3_3_Write
 666              	.LVL98:
 233:XY_Plotter.c  ****                 P3_4_Write(0);
 667              		.loc 1 233 0
 668 0158 0020     		movs	r0, #0
 669 015a FFF7FEFF 		bl	P3_4_Write
 670              	.LVL99:
 234:XY_Plotter.c  ****                 P3_5_Write(0);
 671              		.loc 1 234 0
 672 015e 0020     		movs	r0, #0
 673 0160 FFF7FEFF 		bl	P3_5_Write
 674              	.LVL100:
 235:XY_Plotter.c  ****                 P3_6_Write(0);
 675              		.loc 1 235 0
ARM GAS  C:\Users\Simon\AppData\Local\Temp\cch78olc.s 			page 17


 676 0164 0020     		movs	r0, #0
 677 0166 FFF7FEFF 		bl	P3_6_Write
 678              	.LVL101:
 236:XY_Plotter.c  ****                 stepCase = 4; //reset stepcase
 679              		.loc 1 236 0
 680 016a 0422     		movs	r2, #4
 681 016c 074B     		ldr	r3, .L43+4
 682 016e 1A60     		str	r2, [r3]
 237:XY_Plotter.c  ****                 CyDelay(stepperWait);
 683              		.loc 1 237 0
 684 0170 0A20     		movs	r0, #10
 685 0172 FFF7FEFF 		bl	CyDelay
 686              	.LVL102:
 687              	.L30:
 168:XY_Plotter.c  **** 		if (moveSteps > 0){  //positiv retning?(med uret)
 688              		.loc 1 168 0 discriminator 2
 689 0176 0134     		adds	r4, r4, #1
 690              	.LVL103:
 691              	.L28:
 168:XY_Plotter.c  **** 		if (moveSteps > 0){  //positiv retning?(med uret)
 692              		.loc 1 168 0 is_stmt 0 discriminator 1
 693 0178 85EAE573 		eor	r3, r5, r5, asr #31
 694 017c A3EBE573 		sub	r3, r3, r5, asr #31
 695 0180 9C42     		cmp	r4, r3
 696 0182 FFF646AF 		blt	.L41
 697              	.LBE3:
 238:XY_Plotter.c  ****                 break;
 239:XY_Plotter.c  ****             }
 240:XY_Plotter.c  **** 		}
 241:XY_Plotter.c  **** 	}
 242:XY_Plotter.c  **** }
 698              		.loc 1 242 0 is_stmt 1
 699 0186 38BD     		pop	{r3, r4, r5, pc}
 700              	.LVL104:
 701              	.L44:
 702              		.align	2
 703              	.L43:
 704 0188 00006643 		.word	1130758144
 705 018c 00000000 		.word	stepCase
 706              		.cfi_endproc
 707              	.LFE66:
 708              		.size	moveMotorY, .-moveMotorY
 709              		.global	__aeabi_i2f
 710              		.global	__aeabi_i2d
 711              		.global	__aeabi_dsub
 712              		.global	__aeabi_d2f
 713              		.global	__aeabi_dadd
 714              		.section	.text.moveChessPiece,"ax",%progbits
 715              		.align	2
 716              		.global	moveChessPiece
 717              		.thumb
 718              		.thumb_func
 719              		.type	moveChessPiece, %function
 720              	moveChessPiece:
 721              	.LFB63:
  22:XY_Plotter.c  ****     // Udtryk for at rykke fra currentSquare til fromSquare
 722              		.loc 1 22 0
ARM GAS  C:\Users\Simon\AppData\Local\Temp\cch78olc.s 			page 18


 723              		.cfi_startproc
 724              		@ args = 0, pretend = 0, frame = 16
 725              		@ frame_needed = 0, uses_anonymous_args = 0
 726              	.LVL105:
 727 0000 F0B5     		push	{r4, r5, r6, r7, lr}
 728              		.cfi_def_cfa_offset 20
 729              		.cfi_offset 4, -20
 730              		.cfi_offset 5, -16
 731              		.cfi_offset 6, -12
 732              		.cfi_offset 7, -8
 733              		.cfi_offset 14, -4
 734 0002 85B0     		sub	sp, sp, #20
 735              		.cfi_def_cfa_offset 40
 736 0004 0546     		mov	r5, r0
 737 0006 0C46     		mov	r4, r1
  24:XY_Plotter.c  ****     // Ryk magnet til startposition
 738              		.loc 1 24 0
 739 0008 0246     		mov	r2, r0
 740 000a 464B     		ldr	r3, .L51
 741 000c 1968     		ldr	r1, [r3]
 742              	.LVL106:
 743 000e 02A8     		add	r0, sp, #8
 744              	.LVL107:
 745 0010 FFF7FEFF 		bl	calculateSteps
 746              	.LVL108:
  26:XY_Plotter.c  ****     moveMotorY(moveToStart.y);
 747              		.loc 1 26 0
 748 0014 0298     		ldr	r0, [sp, #8]
 749 0016 FFF7FEFF 		bl	__aeabi_i2f
 750              	.LVL109:
 751 001a FFF7FEFF 		bl	moveMotorX
 752              	.LVL110:
  27:XY_Plotter.c  ****     
 753              		.loc 1 27 0
 754 001e 0398     		ldr	r0, [sp, #12]
 755 0020 FFF7FEFF 		bl	__aeabi_i2f
 756              	.LVL111:
 757 0024 FFF7FEFF 		bl	moveMotorY
 758              	.LVL112:
  31:XY_Plotter.c  ****     
 759              		.loc 1 31 0
 760 0028 2246     		mov	r2, r4
 761 002a 2946     		mov	r1, r5
 762 002c 6846     		mov	r0, sp
 763 002e FFF7FEFF 		bl	calculateSteps
 764              	.LVL113:
  33:XY_Plotter.c  ****     moveMotorX(0.5);
 765              		.loc 1 33 0
 766 0032 009D     		ldr	r5, [sp]
 767              	.LVL114:
 768 0034 002D     		cmp	r5, #0
 769 0036 38DB     		blt	.L46
  34:XY_Plotter.c  ****         if(stepsToMove.y>=0){ //Positv y
 770              		.loc 1 34 0
 771 0038 4FF07C50 		mov	r0, #1056964608
 772 003c FFF7FEFF 		bl	moveMotorX
 773              	.LVL115:
ARM GAS  C:\Users\Simon\AppData\Local\Temp\cch78olc.s 			page 19


  35:XY_Plotter.c  ****             moveMotorY(0.5);
 774              		.loc 1 35 0
 775 0040 019E     		ldr	r6, [sp, #4]
 776 0042 002E     		cmp	r6, #0
 777 0044 18DB     		blt	.L47
  36:XY_Plotter.c  ****             moveMotorY(stepsToMove.y-1);
 778              		.loc 1 36 0
 779 0046 4FF07C57 		mov	r7, #1056964608
 780 004a 3846     		mov	r0, r7
 781 004c FFF7FEFF 		bl	moveMotorY
 782              	.LVL116:
  37:XY_Plotter.c  ****             moveMotorX(stepsToMove.x-0.5);
 783              		.loc 1 37 0
 784 0050 701E     		subs	r0, r6, #1
 785 0052 FFF7FEFF 		bl	__aeabi_i2f
 786              	.LVL117:
 787 0056 FFF7FEFF 		bl	moveMotorY
 788              	.LVL118:
  38:XY_Plotter.c  ****             moveMotorY(0.5);
 789              		.loc 1 38 0
 790 005a 2846     		mov	r0, r5
 791 005c FFF7FEFF 		bl	__aeabi_i2d
 792              	.LVL119:
 793 0060 0022     		movs	r2, #0
 794 0062 314B     		ldr	r3, .L51+4
 795 0064 FFF7FEFF 		bl	__aeabi_dsub
 796              	.LVL120:
 797 0068 FFF7FEFF 		bl	__aeabi_d2f
 798              	.LVL121:
 799 006c FFF7FEFF 		bl	moveMotorX
 800              	.LVL122:
  39:XY_Plotter.c  ****         }
 801              		.loc 1 39 0
 802 0070 3846     		mov	r0, r7
 803 0072 FFF7FEFF 		bl	moveMotorY
 804              	.LVL123:
 805 0076 50E0     		b	.L48
 806              	.L47:
  42:XY_Plotter.c  ****             moveMotorY(stepsToMove.y+1);
 807              		.loc 1 42 0
 808 0078 4FF03F47 		mov	r7, #-1090519040
 809 007c 3846     		mov	r0, r7
 810 007e FFF7FEFF 		bl	moveMotorY
 811              	.LVL124:
  43:XY_Plotter.c  ****             moveMotorX(stepsToMove.x-0.5);
 812              		.loc 1 43 0
 813 0082 701C     		adds	r0, r6, #1
 814 0084 FFF7FEFF 		bl	__aeabi_i2f
 815              	.LVL125:
 816 0088 FFF7FEFF 		bl	moveMotorY
 817              	.LVL126:
  44:XY_Plotter.c  ****             moveMotorY(-0.5);
 818              		.loc 1 44 0
 819 008c 2846     		mov	r0, r5
 820 008e FFF7FEFF 		bl	__aeabi_i2d
 821              	.LVL127:
 822 0092 0022     		movs	r2, #0
ARM GAS  C:\Users\Simon\AppData\Local\Temp\cch78olc.s 			page 20


 823 0094 244B     		ldr	r3, .L51+4
 824 0096 FFF7FEFF 		bl	__aeabi_dsub
 825              	.LVL128:
 826 009a FFF7FEFF 		bl	__aeabi_d2f
 827              	.LVL129:
 828 009e FFF7FEFF 		bl	moveMotorX
 829              	.LVL130:
  45:XY_Plotter.c  ****         }
 830              		.loc 1 45 0
 831 00a2 3846     		mov	r0, r7
 832 00a4 FFF7FEFF 		bl	moveMotorY
 833              	.LVL131:
 834 00a8 37E0     		b	.L48
 835              	.L46:
  49:XY_Plotter.c  ****         if(stepsToMove.y>=0){ //Positv y
 836              		.loc 1 49 0
 837 00aa 4FF03F40 		mov	r0, #-1090519040
 838 00ae FFF7FEFF 		bl	moveMotorX
 839              	.LVL132:
  50:XY_Plotter.c  ****             moveMotorY(0.5);
 840              		.loc 1 50 0
 841 00b2 019E     		ldr	r6, [sp, #4]
 842 00b4 002E     		cmp	r6, #0
 843 00b6 18DB     		blt	.L49
  51:XY_Plotter.c  ****             moveMotorY(stepsToMove.y-1);
 844              		.loc 1 51 0
 845 00b8 4FF07C57 		mov	r7, #1056964608
 846 00bc 3846     		mov	r0, r7
 847 00be FFF7FEFF 		bl	moveMotorY
 848              	.LVL133:
  52:XY_Plotter.c  ****             moveMotorX(stepsToMove.x+0.5);
 849              		.loc 1 52 0
 850 00c2 701E     		subs	r0, r6, #1
 851 00c4 FFF7FEFF 		bl	__aeabi_i2f
 852              	.LVL134:
 853 00c8 FFF7FEFF 		bl	moveMotorY
 854              	.LVL135:
  53:XY_Plotter.c  ****             moveMotorY(0.5);
 855              		.loc 1 53 0
 856 00cc 2846     		mov	r0, r5
 857 00ce FFF7FEFF 		bl	__aeabi_i2d
 858              	.LVL136:
 859 00d2 0022     		movs	r2, #0
 860 00d4 144B     		ldr	r3, .L51+4
 861 00d6 FFF7FEFF 		bl	__aeabi_dadd
 862              	.LVL137:
 863 00da FFF7FEFF 		bl	__aeabi_d2f
 864              	.LVL138:
 865 00de FFF7FEFF 		bl	moveMotorX
 866              	.LVL139:
  54:XY_Plotter.c  ****         }
 867              		.loc 1 54 0
 868 00e2 3846     		mov	r0, r7
 869 00e4 FFF7FEFF 		bl	moveMotorY
 870              	.LVL140:
 871 00e8 17E0     		b	.L48
 872              	.L49:
ARM GAS  C:\Users\Simon\AppData\Local\Temp\cch78olc.s 			page 21


  57:XY_Plotter.c  ****             moveMotorY(stepsToMove.y+1);
 873              		.loc 1 57 0
 874 00ea 4FF03F47 		mov	r7, #-1090519040
 875 00ee 3846     		mov	r0, r7
 876 00f0 FFF7FEFF 		bl	moveMotorY
 877              	.LVL141:
  58:XY_Plotter.c  ****             moveMotorX(stepsToMove.x+0.5);
 878              		.loc 1 58 0
 879 00f4 701C     		adds	r0, r6, #1
 880 00f6 FFF7FEFF 		bl	__aeabi_i2f
 881              	.LVL142:
 882 00fa FFF7FEFF 		bl	moveMotorY
 883              	.LVL143:
  59:XY_Plotter.c  ****             moveMotorY(-0.5);
 884              		.loc 1 59 0
 885 00fe 2846     		mov	r0, r5
 886 0100 FFF7FEFF 		bl	__aeabi_i2d
 887              	.LVL144:
 888 0104 0022     		movs	r2, #0
 889 0106 084B     		ldr	r3, .L51+4
 890 0108 FFF7FEFF 		bl	__aeabi_dadd
 891              	.LVL145:
 892 010c FFF7FEFF 		bl	__aeabi_d2f
 893              	.LVL146:
 894 0110 FFF7FEFF 		bl	moveMotorX
 895              	.LVL147:
  60:XY_Plotter.c  ****         }
 896              		.loc 1 60 0
 897 0114 3846     		mov	r0, r7
 898 0116 FFF7FEFF 		bl	moveMotorY
 899              	.LVL148:
 900              	.L48:
  67:XY_Plotter.c  **** }
 901              		.loc 1 67 0
 902 011a 024B     		ldr	r3, .L51
 903 011c 1C60     		str	r4, [r3]
  68:XY_Plotter.c  **** 
 904              		.loc 1 68 0
 905 011e 05B0     		add	sp, sp, #20
 906              		.cfi_def_cfa_offset 20
 907              		@ sp needed
 908 0120 F0BD     		pop	{r4, r5, r6, r7, pc}
 909              	.LVL149:
 910              	.L52:
 911 0122 00BF     		.align	2
 912              	.L51:
 913 0124 00000000 		.word	currentSquare
 914 0128 0000E03F 		.word	1071644672
 915              		.cfi_endproc
 916              	.LFE63:
 917              		.size	moveChessPiece, .-moveChessPiece
 918              		.section	.text.initXYPlotter,"ax",%progbits
 919              		.align	2
 920              		.global	initXYPlotter
 921              		.thumb
 922              		.thumb_func
 923              		.type	initXYPlotter, %function
ARM GAS  C:\Users\Simon\AppData\Local\Temp\cch78olc.s 			page 22


 924              	initXYPlotter:
 925              	.LFB67:
 243:XY_Plotter.c  **** 
 244:XY_Plotter.c  **** void initXYPlotter()
 245:XY_Plotter.c  **** {
 926              		.loc 1 245 0
 927              		.cfi_startproc
 928              		@ args = 0, pretend = 0, frame = 0
 929              		@ frame_needed = 0, uses_anonymous_args = 0
 930              		@ link register save eliminated.
 246:XY_Plotter.c  ****     stepCase = 1;
 931              		.loc 1 246 0
 932 0000 0122     		movs	r2, #1
 933 0002 014B     		ldr	r3, .L54
 934 0004 1A60     		str	r2, [r3]
 935 0006 7047     		bx	lr
 936              	.L55:
 937              		.align	2
 938              	.L54:
 939 0008 00000000 		.word	stepCase
 940              		.cfi_endproc
 941              	.LFE67:
 942              		.size	initXYPlotter, .-initXYPlotter
 943              		.section	.text.motorTest,"ax",%progbits
 944              		.align	2
 945              		.global	motorTest
 946              		.thumb
 947              		.thumb_func
 948              		.type	motorTest, %function
 949              	motorTest:
 950              	.LFB68:
 247:XY_Plotter.c  **** }
 248:XY_Plotter.c  **** 
 249:XY_Plotter.c  **** void motorTest(P1_1,P2_1,P1_2,P2_2)
 250:XY_Plotter.c  **** {
 951              		.loc 1 250 0
 952              		.cfi_startproc
 953              		@ args = 0, pretend = 0, frame = 0
 954              		@ frame_needed = 0, uses_anonymous_args = 0
 955              	.LVL150:
 956 0000 70B5     		push	{r4, r5, r6, lr}
 957              		.cfi_def_cfa_offset 16
 958              		.cfi_offset 4, -16
 959              		.cfi_offset 5, -12
 960              		.cfi_offset 6, -8
 961              		.cfi_offset 14, -4
 962 0002 0E46     		mov	r6, r1
 963 0004 1546     		mov	r5, r2
 964 0006 1C46     		mov	r4, r3
 251:XY_Plotter.c  **** P2_3_Write(P1_1); //P1.1
 965              		.loc 1 251 0
 966 0008 C0B2     		uxtb	r0, r0
 967              	.LVL151:
 968 000a FFF7FEFF 		bl	P2_3_Write
 969              	.LVL152:
 252:XY_Plotter.c  **** P2_4_Write(P2_1); //P2.1
 970              		.loc 1 252 0
ARM GAS  C:\Users\Simon\AppData\Local\Temp\cch78olc.s 			page 23


 971 000e F0B2     		uxtb	r0, r6
 972 0010 FFF7FEFF 		bl	P2_4_Write
 973              	.LVL153:
 253:XY_Plotter.c  **** P2_5_Write(P1_2); //P1.2
 974              		.loc 1 253 0
 975 0014 E8B2     		uxtb	r0, r5
 976 0016 FFF7FEFF 		bl	P2_5_Write
 977              	.LVL154:
 254:XY_Plotter.c  **** P2_6_Write(P2_2); //P2.2
 978              		.loc 1 254 0
 979 001a E0B2     		uxtb	r0, r4
 980 001c FFF7FEFF 		bl	P2_6_Write
 981              	.LVL155:
 982 0020 70BD     		pop	{r4, r5, r6, pc}
 983              		.cfi_endproc
 984              	.LFE68:
 985              		.size	motorTest, .-motorTest
 986 0022 00BF     		.section	.text.XYPlotterTest,"ax",%progbits
 987              		.align	2
 988              		.global	XYPlotterTest
 989              		.thumb
 990              		.thumb_func
 991              		.type	XYPlotterTest, %function
 992              	XYPlotterTest:
 993              	.LFB69:
 255:XY_Plotter.c  **** }
 256:XY_Plotter.c  **** 
 257:XY_Plotter.c  **** void XYPlotterTest()
 258:XY_Plotter.c  **** {
 994              		.loc 1 258 0
 995              		.cfi_startproc
 996              		@ args = 0, pretend = 0, frame = 0
 997              		@ frame_needed = 0, uses_anonymous_args = 0
 998 0000 08B5     		push	{r3, lr}
 999              		.cfi_def_cfa_offset 8
 1000              		.cfi_offset 3, -8
 1001              		.cfi_offset 14, -4
 259:XY_Plotter.c  ****     //moveChessPiece(1,12);
 260:XY_Plotter.c  ****     moveMotorY(-5);
 1002              		.loc 1 260 0
 1003 0002 0348     		ldr	r0, .L60
 1004 0004 FFF7FEFF 		bl	moveMotorY
 1005              	.LVL156:
 261:XY_Plotter.c  ****     moveMotorY(5);
 1006              		.loc 1 261 0
 1007 0008 0248     		ldr	r0, .L60+4
 1008 000a FFF7FEFF 		bl	moveMotorY
 1009              	.LVL157:
 1010 000e 08BD     		pop	{r3, pc}
 1011              	.L61:
 1012              		.align	2
 1013              	.L60:
 1014 0010 0000A0C0 		.word	-1063256064
 1015 0014 0000A040 		.word	1084227584
 1016              		.cfi_endproc
 1017              	.LFE69:
 1018              		.size	XYPlotterTest, .-XYPlotterTest
ARM GAS  C:\Users\Simon\AppData\Local\Temp\cch78olc.s 			page 24


 1019              		.comm	stepCase,4,4
 1020              		.comm	currentSquare,4,4
 1021              		.text
 1022              	.Letext0:
 1023              		.file 2 "c:\\program files (x86)\\cypress\\psoc creator\\4.4\\psoc creator\\import\\gnu\\arm\\5.4.
 1024              		.file 3 "c:\\program files (x86)\\cypress\\psoc creator\\4.4\\psoc creator\\import\\gnu\\arm\\5.4.
 1025              		.file 4 "Generated_Source\\PSoC5/core_cm3.h"
 1026              		.file 5 "XY_Plotter.h"
 1027              		.file 6 "Generated_Source\\PSoC5/P2_3.h"
 1028              		.file 7 "Generated_Source\\PSoC5/P2_4.h"
 1029              		.file 8 "Generated_Source\\PSoC5/P2_5.h"
 1030              		.file 9 "Generated_Source\\PSoC5/P2_6.h"
 1031              		.file 10 "Generated_Source\\PSoC5/CyLib.h"
 1032              		.file 11 "Generated_Source\\PSoC5/P3_3.h"
 1033              		.file 12 "Generated_Source\\PSoC5/P3_4.h"
 1034              		.file 13 "Generated_Source\\PSoC5/P3_5.h"
 1035              		.file 14 "Generated_Source\\PSoC5/P3_6.h"