ARM GAS  C:\Users\Simon\AppData\Local\Temp\ccmwFnmI.s 			page 1


   1              		.syntax unified
   2              		.cpu cortex-m3
   3              		.fpu softvfp
   4              		.eabi_attribute 20, 1
   5              		.eabi_attribute 21, 1
   6              		.eabi_attribute 23, 3
   7              		.eabi_attribute 24, 1
   8              		.eabi_attribute 25, 1
   9              		.eabi_attribute 26, 1
  10              		.eabi_attribute 30, 1
  11              		.eabi_attribute 34, 1
  12              		.eabi_attribute 18, 4
  13              		.thumb
  14              		.syntax unified
  15              		.file	"XYPlotter.c"
  16              		.text
  17              	.Ltext0:
  18              		.cfi_sections	.debug_frame
  19              		.section	.text.calculateSquares,"ax",%progbits
  20              		.align	2
  21              		.global	calculateSquares
  22              		.thumb
  23              		.thumb_func
  24              		.type	calculateSquares, %function
  25              	calculateSquares:
  26              	.LFB65:
  27              		.file 1 "XYPlotter.c"
   1:XYPlotter.c   **** /* ========================================
   2:XYPlotter.c   ****  *
   3:XYPlotter.c   ****  * Copyright YOUR COMPANY, THE YEAR
   4:XYPlotter.c   ****  * All Rights Reserved
   5:XYPlotter.c   ****  * UNPUBLISHED, LICENSED SOFTWARE.
   6:XYPlotter.c   ****  *
   7:XYPlotter.c   ****  * CONFIDENTIAL AND PROPRIETARY INFORMATION
   8:XYPlotter.c   ****  * WHICH IS THE PROPERTY OF your company.
   9:XYPlotter.c   ****  *
  10:XYPlotter.c   ****  * ========================================
  11:XYPlotter.c   **** */
  12:XYPlotter.c   **** #include "XYPlotter.h"
  13:XYPlotter.c   **** 
  14:XYPlotter.c   **** 
  15:XYPlotter.c   **** // Funktion til at flytte brik fra fromSquare til toSquare
  16:XYPlotter.c   **** void moveChessPiece(uint8_t fromSquare, uint8_t toSquare) {
  17:XYPlotter.c   ****     // Udtryk for at rykke fra currentSquare til fromSquare
  18:XYPlotter.c   ****     struct stepDif moveToStart = calculateSquares(currentSquare, fromSquare);
  19:XYPlotter.c   ****     
  20:XYPlotter.c   ****     // Ryk magnet til startposition
  21:XYPlotter.c   ****     moveMotorX(moveToStart.x);
  22:XYPlotter.c   ****     moveMotorY(moveToStart.y);
  23:XYPlotter.c   ****     
  24:XYPlotter.c   ****     servoOn(); //Tænd magnet
  25:XYPlotter.c   ****     
  26:XYPlotter.c   ****     struct stepDif stepsToMove = calculateSquares(fromSquare, toSquare);
  27:XYPlotter.c   ****     
  28:XYPlotter.c   ****     if(stepsToMove.x>=0){     //Positv x 
  29:XYPlotter.c   ****     moveMotorX(0.5);
  30:XYPlotter.c   ****         if(stepsToMove.y>=0){ //Positv y
ARM GAS  C:\Users\Simon\AppData\Local\Temp\ccmwFnmI.s 			page 2


  31:XYPlotter.c   ****             moveMotorY(0.5);
  32:XYPlotter.c   ****             moveMotorY(stepsToMove.y-1);
  33:XYPlotter.c   ****             moveMotorX(stepsToMove.x-0.5);
  34:XYPlotter.c   ****             moveMotorY(0.5);
  35:XYPlotter.c   ****             CyDelay(1000);
  36:XYPlotter.c   ****             servoOff(); //sluk magnet
  37:XYPlotter.c   ****         }
  38:XYPlotter.c   ****         else{                 //Negativ y
  39:XYPlotter.c   ****             moveMotorY(-0.5);
  40:XYPlotter.c   ****             moveMotorY(stepsToMove.y+1);
  41:XYPlotter.c   ****             moveMotorX(stepsToMove.x-0.5);
  42:XYPlotter.c   ****             moveMotorY(-0.5);
  43:XYPlotter.c   ****             CyDelay(1000);
  44:XYPlotter.c   ****             servoOff(); //sluk magnet
  45:XYPlotter.c   ****         }
  46:XYPlotter.c   ****     }
  47:XYPlotter.c   ****     else{                     //Negativ x
  48:XYPlotter.c   ****     moveMotorX(-0.5);
  49:XYPlotter.c   ****         if(stepsToMove.y>=0){ //Positv y
  50:XYPlotter.c   ****             moveMotorY(0.5);
  51:XYPlotter.c   ****             moveMotorY(stepsToMove.y-1);
  52:XYPlotter.c   ****             moveMotorX(stepsToMove.x+0.5);
  53:XYPlotter.c   ****             moveMotorY(0.5);
  54:XYPlotter.c   ****             CyDelay(1000);
  55:XYPlotter.c   ****             servoOff(); //sluk magnet
  56:XYPlotter.c   ****         }
  57:XYPlotter.c   ****         else{                 //Negativ y
  58:XYPlotter.c   ****             moveMotorY(-0.5);
  59:XYPlotter.c   ****             moveMotorY(stepsToMove.y+1);
  60:XYPlotter.c   ****             moveMotorX(stepsToMove.x+0.5);
  61:XYPlotter.c   ****             moveMotorY(-0.5);
  62:XYPlotter.c   ****             CyDelay(1000);
  63:XYPlotter.c   ****             servoOff(); //sluk magnet
  64:XYPlotter.c   ****         }
  65:XYPlotter.c   ****     }
  66:XYPlotter.c   ****     
  67:XYPlotter.c   ****     
  68:XYPlotter.c   ****     
  69:XYPlotter.c   ****     //Opdater magnetens position
  70:XYPlotter.c   ****     currentSquare = toSquare;
  71:XYPlotter.c   ****     
  72:XYPlotter.c   ****     //CyDelay(1000); //Vent til magnet er færdig med at bevæge sig.
  73:XYPlotter.c   **** }
  74:XYPlotter.c   **** 
  75:XYPlotter.c   **** // Funktion til at beregne antal steps mellem to felter
  76:XYPlotter.c   **** struct stepDif calculateSquares(uint8_t fromSquare, uint8_t toSquare) {
  28              		.loc 1 76 0
  29              		.cfi_startproc
  30              		@ args = 0, pretend = 0, frame = 0
  31              		@ frame_needed = 0, uses_anonymous_args = 0
  32              		@ link register save eliminated.
  33              	.LVL0:
  34 0000 30B4     		push	{r4, r5}
  35              		.cfi_def_cfa_offset 8
  36              		.cfi_offset 4, -8
  37              		.cfi_offset 5, -4
  77:XYPlotter.c   ****     // Beregn x og y for både fromSquare og toSquare
ARM GAS  C:\Users\Simon\AppData\Local\Temp\ccmwFnmI.s 			page 3


  78:XYPlotter.c   ****     uint8_t fromX = fromSquare % SQUARES_PER_ROW;
  38              		.loc 1 78 0
  39 0002 01F00705 		and	r5, r1, #7
  40              	.LVL1:
  79:XYPlotter.c   ****     uint8_t toX = toSquare % SQUARES_PER_ROW;
  41              		.loc 1 79 0
  42 0006 02F00703 		and	r3, r2, #7
  43              	.LVL2:
  80:XYPlotter.c   ****     
  81:XYPlotter.c   ****     uint8_t fromY = fromSquare / SQUARES_PER_ROW;
  82:XYPlotter.c   ****     uint8_t toY = toSquare / SQUARES_PER_ROW;
  44              		.loc 1 82 0
  45 000a D208     		lsrs	r2, r2, #3
  46              	.LVL3:
  83:XYPlotter.c   ****     
  84:XYPlotter.c   ****     // Beregn række- og kolonneforskellen
  85:XYPlotter.c   ****     struct stepDif dif;
  86:XYPlotter.c   ****     dif.x = (toX - fromX);
  47              		.loc 1 86 0
  48 000c 5B1B     		subs	r3, r3, r5
  49              	.LVL4:
  50 000e 0360     		str	r3, [r0]
  87:XYPlotter.c   ****     dif.y = (toY - fromY);
  51              		.loc 1 87 0
  52 0010 A2EBD101 		sub	r1, r2, r1, lsr #3
  53              	.LVL5:
  54 0014 4160     		str	r1, [r0, #4]
  88:XYPlotter.c   ****     return dif;
  89:XYPlotter.c   **** }
  55              		.loc 1 89 0
  56 0016 30BC     		pop	{r4, r5}
  57              		.cfi_restore 5
  58              		.cfi_restore 4
  59              		.cfi_def_cfa_offset 0
  60              	.LVL6:
  61 0018 7047     		bx	lr
  62              		.cfi_endproc
  63              	.LFE65:
  64              		.size	calculateSquares, .-calculateSquares
  65 001a 00BF     		.section	.text.initXYPlotter,"ax",%progbits
  66              		.align	2
  67              		.global	initXYPlotter
  68              		.thumb
  69              		.thumb_func
  70              		.type	initXYPlotter, %function
  71              	initXYPlotter:
  72              	.LFB68:
  90:XYPlotter.c   **** 
  91:XYPlotter.c   **** 
  92:XYPlotter.c   **** // Funktion til at styre steppermotor x
  93:XYPlotter.c   **** void moveMotorX(float squares) {
  94:XYPlotter.c   ****     int moveSteps = squares * STEPS_PER_SQUARE;
  95:XYPlotter.c   **** 	for(int i = 0; i < abs(moveSteps); i++){
  96:XYPlotter.c   **** 		if (moveSteps > 0){  //positiv retning?(med uret)
  97:XYPlotter.c   ****             switch(stepCase){
  98:XYPlotter.c   ****                 case 1:
  99:XYPlotter.c   ****                 P2_3_Write(1); //P1.1
ARM GAS  C:\Users\Simon\AppData\Local\Temp\ccmwFnmI.s 			page 4


 100:XYPlotter.c   ****                 P2_4_Write(0); //P2.1
 101:XYPlotter.c   ****                 P2_5_Write(0); //P1.2
 102:XYPlotter.c   ****                 P2_6_Write(0); //P2.2
 103:XYPlotter.c   ****                 stepCase++;
 104:XYPlotter.c   ****                 CyDelayUs(stepperWait);
 105:XYPlotter.c   ****                 break;
 106:XYPlotter.c   ****                 case 2:
 107:XYPlotter.c   ****                 P2_3_Write(0); 
 108:XYPlotter.c   ****                 P2_4_Write(1);
 109:XYPlotter.c   ****                 P2_5_Write(0);
 110:XYPlotter.c   ****                 P2_6_Write(0);
 111:XYPlotter.c   ****                 stepCase++;
 112:XYPlotter.c   ****                 CyDelayUs(stepperWait);
 113:XYPlotter.c   ****                 break;
 114:XYPlotter.c   ****                 case 3:
 115:XYPlotter.c   ****                 P2_3_Write(0);
 116:XYPlotter.c   ****                 P2_4_Write(0);
 117:XYPlotter.c   ****                 P2_5_Write(1);
 118:XYPlotter.c   ****                 P2_6_Write(0);
 119:XYPlotter.c   ****                 stepCase++;
 120:XYPlotter.c   ****                 CyDelayUs(stepperWait);
 121:XYPlotter.c   ****                 break;
 122:XYPlotter.c   ****                 case 4:
 123:XYPlotter.c   ****                 P2_3_Write(0);
 124:XYPlotter.c   ****                 P2_4_Write(0);
 125:XYPlotter.c   ****                 P2_5_Write(0);
 126:XYPlotter.c   ****                 P2_6_Write(1);
 127:XYPlotter.c   ****                 CyDelayUs(stepperWait);
 128:XYPlotter.c   ****                 stepCase = 1; //reset stepCase
 129:XYPlotter.c   ****                 break;
 130:XYPlotter.c   ****             }
 131:XYPlotter.c   **** 		}
 132:XYPlotter.c   **** 		else{               //negativ retning?(mod uret)
 133:XYPlotter.c   ****             switch(stepCase){
 134:XYPlotter.c   ****                 case 4:
 135:XYPlotter.c   ****                 P2_3_Write(0);
 136:XYPlotter.c   ****                 P2_4_Write(0);
 137:XYPlotter.c   ****                 P2_5_Write(0);
 138:XYPlotter.c   ****                 P2_6_Write(1);
 139:XYPlotter.c   ****                 stepCase--;
 140:XYPlotter.c   ****                 CyDelayUs(stepperWait);
 141:XYPlotter.c   ****                 break;
 142:XYPlotter.c   ****                 case 3:
 143:XYPlotter.c   ****                 P2_3_Write(0);
 144:XYPlotter.c   ****                 P2_4_Write(0);
 145:XYPlotter.c   ****                 P2_5_Write(1);
 146:XYPlotter.c   ****                 P2_6_Write(0);
 147:XYPlotter.c   ****                 stepCase--;
 148:XYPlotter.c   ****                 CyDelayUs(stepperWait);
 149:XYPlotter.c   ****                 break;
 150:XYPlotter.c   ****                 case 2:
 151:XYPlotter.c   ****                 P2_3_Write(0);
 152:XYPlotter.c   ****                 P2_4_Write(1);
 153:XYPlotter.c   ****                 P2_5_Write(0);
 154:XYPlotter.c   ****                 P2_6_Write(0);
 155:XYPlotter.c   ****                 stepCase--;
 156:XYPlotter.c   ****                 CyDelayUs(stepperWait);
ARM GAS  C:\Users\Simon\AppData\Local\Temp\ccmwFnmI.s 			page 5


 157:XYPlotter.c   ****                 break;
 158:XYPlotter.c   ****                 case 1:
 159:XYPlotter.c   ****                 P2_3_Write(1);
 160:XYPlotter.c   ****                 P2_4_Write(0);
 161:XYPlotter.c   ****                 P2_5_Write(0);
 162:XYPlotter.c   ****                 P2_6_Write(0);
 163:XYPlotter.c   ****                 stepCase = 4; //reset stepcase
 164:XYPlotter.c   ****                 CyDelayUs(stepperWait);
 165:XYPlotter.c   ****                 break;
 166:XYPlotter.c   ****             }
 167:XYPlotter.c   **** 		}
 168:XYPlotter.c   **** 	}
 169:XYPlotter.c   ****     steppersOff();
 170:XYPlotter.c   **** }
 171:XYPlotter.c   **** // Funktion til at styre steppermotor y
 172:XYPlotter.c   **** void moveMotorY(float squares) {
 173:XYPlotter.c   ****     int moveSteps = squares * STEPS_PER_SQUARE;
 174:XYPlotter.c   **** 	for(int i = 0; i < abs(moveSteps); i++){
 175:XYPlotter.c   **** 		if (moveSteps > 0){  //positiv retning?(med uret)
 176:XYPlotter.c   ****             switch(stepCase){
 177:XYPlotter.c   ****                 case 1:
 178:XYPlotter.c   ****                 P3_3_Write(1); //P1.1
 179:XYPlotter.c   ****                 P3_4_Write(0); //P3.1
 180:XYPlotter.c   ****                 P3_5_Write(0); //P1.2
 181:XYPlotter.c   ****                 P3_6_Write(0); //P3.2
 182:XYPlotter.c   ****                 stepCase++;
 183:XYPlotter.c   ****                 CyDelayUs(stepperWait);
 184:XYPlotter.c   ****                 break;
 185:XYPlotter.c   ****                 case 2:
 186:XYPlotter.c   ****                 P3_3_Write(0); 
 187:XYPlotter.c   ****                 P3_4_Write(1);
 188:XYPlotter.c   ****                 P3_5_Write(0);
 189:XYPlotter.c   ****                 P3_6_Write(0);
 190:XYPlotter.c   ****                 stepCase++;
 191:XYPlotter.c   ****                 CyDelayUs(stepperWait);
 192:XYPlotter.c   ****                 break;
 193:XYPlotter.c   ****                 case 3:
 194:XYPlotter.c   ****                 P3_3_Write(0);
 195:XYPlotter.c   ****                 P3_4_Write(0);
 196:XYPlotter.c   ****                 P3_5_Write(1);
 197:XYPlotter.c   ****                 P3_6_Write(0);
 198:XYPlotter.c   ****                 stepCase++;
 199:XYPlotter.c   ****                 CyDelayUs(stepperWait);
 200:XYPlotter.c   ****                 break;
 201:XYPlotter.c   ****                 case 4:
 202:XYPlotter.c   ****                 P3_3_Write(0);
 203:XYPlotter.c   ****                 P3_4_Write(0);
 204:XYPlotter.c   ****                 P3_5_Write(0);
 205:XYPlotter.c   ****                 P3_6_Write(1);
 206:XYPlotter.c   ****                 CyDelayUs(stepperWait);
 207:XYPlotter.c   ****                 stepCase = 1; //reset stepCase
 208:XYPlotter.c   ****                 break;
 209:XYPlotter.c   ****             }
 210:XYPlotter.c   **** 		}
 211:XYPlotter.c   **** 		else{               //negativ retning?(mod uret)
 212:XYPlotter.c   ****             switch(stepCase){
 213:XYPlotter.c   ****                 case 4:
ARM GAS  C:\Users\Simon\AppData\Local\Temp\ccmwFnmI.s 			page 6


 214:XYPlotter.c   ****                 P3_3_Write(0);
 215:XYPlotter.c   ****                 P3_4_Write(0);
 216:XYPlotter.c   ****                 P3_5_Write(0);
 217:XYPlotter.c   ****                 P3_6_Write(1);
 218:XYPlotter.c   ****                 stepCase--;
 219:XYPlotter.c   ****                 CyDelayUs(stepperWait);
 220:XYPlotter.c   ****                 break;
 221:XYPlotter.c   ****                 case 3:
 222:XYPlotter.c   ****                 P3_3_Write(0);
 223:XYPlotter.c   ****                 P3_4_Write(0);
 224:XYPlotter.c   ****                 P3_5_Write(1);
 225:XYPlotter.c   ****                 P3_6_Write(0);
 226:XYPlotter.c   ****                 stepCase--;
 227:XYPlotter.c   ****                 CyDelayUs(stepperWait);
 228:XYPlotter.c   ****                 break;
 229:XYPlotter.c   ****                 case 2:
 230:XYPlotter.c   ****                 P3_3_Write(0);
 231:XYPlotter.c   ****                 P3_4_Write(1);
 232:XYPlotter.c   ****                 P3_5_Write(0);
 233:XYPlotter.c   ****                 P3_6_Write(0);
 234:XYPlotter.c   ****                 stepCase--;
 235:XYPlotter.c   ****                 CyDelayUs(stepperWait);
 236:XYPlotter.c   ****                 break;
 237:XYPlotter.c   ****                 case 1:
 238:XYPlotter.c   ****                 P3_3_Write(1);
 239:XYPlotter.c   ****                 P3_4_Write(0);
 240:XYPlotter.c   ****                 P3_5_Write(0);
 241:XYPlotter.c   ****                 P3_6_Write(0);
 242:XYPlotter.c   ****                 stepCase = 4; //reset stepcase
 243:XYPlotter.c   ****                 CyDelayUs(stepperWait);
 244:XYPlotter.c   ****                 break;
 245:XYPlotter.c   ****             }
 246:XYPlotter.c   **** 		}
 247:XYPlotter.c   **** 	}
 248:XYPlotter.c   ****     steppersOff();
 249:XYPlotter.c   **** }
 250:XYPlotter.c   **** 
 251:XYPlotter.c   **** void initXYPlotter()
 252:XYPlotter.c   **** {
  73              		.loc 1 252 0
  74              		.cfi_startproc
  75              		@ args = 0, pretend = 0, frame = 0
  76              		@ frame_needed = 0, uses_anonymous_args = 0
  77              		@ link register save eliminated.
 253:XYPlotter.c   ****     stepCase = 1;
  78              		.loc 1 253 0
  79 0000 0122     		movs	r2, #1
  80 0002 034B     		ldr	r3, .L4
  81 0004 1A70     		strb	r2, [r3]
 254:XYPlotter.c   ****     currentSquare = 0;
  82              		.loc 1 254 0
  83 0006 0022     		movs	r2, #0
  84 0008 024B     		ldr	r3, .L4+4
  85 000a 1A70     		strb	r2, [r3]
  86 000c 7047     		bx	lr
  87              	.L5:
  88 000e 00BF     		.align	2
ARM GAS  C:\Users\Simon\AppData\Local\Temp\ccmwFnmI.s 			page 7


  89              	.L4:
  90 0010 00000000 		.word	stepCase
  91 0014 00000000 		.word	currentSquare
  92              		.cfi_endproc
  93              	.LFE68:
  94              		.size	initXYPlotter, .-initXYPlotter
  95              		.section	.text.motorTest,"ax",%progbits
  96              		.align	2
  97              		.global	motorTest
  98              		.thumb
  99              		.thumb_func
 100              		.type	motorTest, %function
 101              	motorTest:
 102              	.LFB69:
 255:XYPlotter.c   **** }
 256:XYPlotter.c   **** 
 257:XYPlotter.c   **** void motorTest(uint8_t P1_1, uint8_t P2_1,uint8_t P1_2, uint8_t P2_2)
 258:XYPlotter.c   **** {
 103              		.loc 1 258 0
 104              		.cfi_startproc
 105              		@ args = 0, pretend = 0, frame = 0
 106              		@ frame_needed = 0, uses_anonymous_args = 0
 107              	.LVL7:
 108 0000 70B5     		push	{r4, r5, r6, lr}
 109              		.cfi_def_cfa_offset 16
 110              		.cfi_offset 4, -16
 111              		.cfi_offset 5, -12
 112              		.cfi_offset 6, -8
 113              		.cfi_offset 14, -4
 114 0002 0E46     		mov	r6, r1
 115 0004 1546     		mov	r5, r2
 116 0006 1C46     		mov	r4, r3
 259:XYPlotter.c   **** P2_3_Write(P1_1); //P1.1
 117              		.loc 1 259 0
 118 0008 FFF7FEFF 		bl	P2_3_Write
 119              	.LVL8:
 260:XYPlotter.c   **** P2_4_Write(P2_1); //P2.1
 120              		.loc 1 260 0
 121 000c 3046     		mov	r0, r6
 122 000e FFF7FEFF 		bl	P2_4_Write
 123              	.LVL9:
 261:XYPlotter.c   **** P2_5_Write(P1_2); //P1.2
 124              		.loc 1 261 0
 125 0012 2846     		mov	r0, r5
 126 0014 FFF7FEFF 		bl	P2_5_Write
 127              	.LVL10:
 262:XYPlotter.c   **** P2_6_Write(P2_2); //P2.2
 128              		.loc 1 262 0
 129 0018 2046     		mov	r0, r4
 130 001a FFF7FEFF 		bl	P2_6_Write
 131              	.LVL11:
 132 001e 70BD     		pop	{r4, r5, r6, pc}
 133              		.cfi_endproc
 134              	.LFE69:
 135              		.size	motorTest, .-motorTest
 136              		.section	.text.steppersOff,"ax",%progbits
 137              		.align	2
ARM GAS  C:\Users\Simon\AppData\Local\Temp\ccmwFnmI.s 			page 8


 138              		.global	steppersOff
 139              		.thumb
 140              		.thumb_func
 141              		.type	steppersOff, %function
 142              	steppersOff:
 143              	.LFB70:
 263:XYPlotter.c   **** }
 264:XYPlotter.c   **** 
 265:XYPlotter.c   **** void steppersOff()
 266:XYPlotter.c   **** {
 144              		.loc 1 266 0
 145              		.cfi_startproc
 146              		@ args = 0, pretend = 0, frame = 0
 147              		@ frame_needed = 0, uses_anonymous_args = 0
 148 0000 08B5     		push	{r3, lr}
 149              		.cfi_def_cfa_offset 8
 150              		.cfi_offset 3, -8
 151              		.cfi_offset 14, -4
 267:XYPlotter.c   **** P2_3_Write(0); 
 152              		.loc 1 267 0
 153 0002 0020     		movs	r0, #0
 154 0004 FFF7FEFF 		bl	P2_3_Write
 155              	.LVL12:
 268:XYPlotter.c   **** P2_4_Write(0); 
 156              		.loc 1 268 0
 157 0008 0020     		movs	r0, #0
 158 000a FFF7FEFF 		bl	P2_4_Write
 159              	.LVL13:
 269:XYPlotter.c   **** P2_5_Write(0); 
 160              		.loc 1 269 0
 161 000e 0020     		movs	r0, #0
 162 0010 FFF7FEFF 		bl	P2_5_Write
 163              	.LVL14:
 270:XYPlotter.c   **** P2_6_Write(0); 
 164              		.loc 1 270 0
 165 0014 0020     		movs	r0, #0
 166 0016 FFF7FEFF 		bl	P2_6_Write
 167              	.LVL15:
 271:XYPlotter.c   **** P3_3_Write(0); 
 168              		.loc 1 271 0
 169 001a 0020     		movs	r0, #0
 170 001c FFF7FEFF 		bl	P3_3_Write
 171              	.LVL16:
 272:XYPlotter.c   **** P3_4_Write(0); 
 172              		.loc 1 272 0
 173 0020 0020     		movs	r0, #0
 174 0022 FFF7FEFF 		bl	P3_4_Write
 175              	.LVL17:
 273:XYPlotter.c   **** P3_5_Write(0);
 176              		.loc 1 273 0
 177 0026 0020     		movs	r0, #0
 178 0028 FFF7FEFF 		bl	P3_5_Write
 179              	.LVL18:
 274:XYPlotter.c   **** P3_6_Write(0); 
 180              		.loc 1 274 0
 181 002c 0020     		movs	r0, #0
 182 002e FFF7FEFF 		bl	P3_6_Write
ARM GAS  C:\Users\Simon\AppData\Local\Temp\ccmwFnmI.s 			page 9


 183              	.LVL19:
 184 0032 08BD     		pop	{r3, pc}
 185              		.cfi_endproc
 186              	.LFE70:
 187              		.size	steppersOff, .-steppersOff
 188              		.global	__aeabi_fmul
 189              		.global	__aeabi_f2iz
 190              		.section	.text.moveMotorX,"ax",%progbits
 191              		.align	2
 192              		.global	moveMotorX
 193              		.thumb
 194              		.thumb_func
 195              		.type	moveMotorX, %function
 196              	moveMotorX:
 197              	.LFB66:
  93:XYPlotter.c   ****     int moveSteps = squares * STEPS_PER_SQUARE;
 198              		.loc 1 93 0
 199              		.cfi_startproc
 200              		@ args = 0, pretend = 0, frame = 0
 201              		@ frame_needed = 0, uses_anonymous_args = 0
 202              	.LVL20:
 203 0000 38B5     		push	{r3, r4, r5, lr}
 204              		.cfi_def_cfa_offset 16
 205              		.cfi_offset 3, -16
 206              		.cfi_offset 4, -12
 207              		.cfi_offset 5, -8
 208              		.cfi_offset 14, -4
  94:XYPlotter.c   **** 	for(int i = 0; i < abs(moveSteps); i++){
 209              		.loc 1 94 0
 210 0002 6649     		ldr	r1, .L26
 211 0004 FFF7FEFF 		bl	__aeabi_fmul
 212              	.LVL21:
 213 0008 FFF7FEFF 		bl	__aeabi_f2iz
 214              	.LVL22:
 215 000c 0546     		mov	r5, r0
 216              	.LVL23:
 217              	.LBB2:
  95:XYPlotter.c   **** 		if (moveSteps > 0){  //positiv retning?(med uret)
 218              		.loc 1 95 0
 219 000e 0024     		movs	r4, #0
 220 0010 BAE0     		b	.L11
 221              	.LVL24:
 222              	.L24:
  96:XYPlotter.c   ****             switch(stepCase){
 223              		.loc 1 96 0
 224 0012 002D     		cmp	r5, #0
 225 0014 5CDD     		ble	.L12
  97:XYPlotter.c   ****                 case 1:
 226              		.loc 1 97 0
 227 0016 624B     		ldr	r3, .L26+4
 228 0018 1B78     		ldrb	r3, [r3]	@ zero_extendqisi2
 229 001a 013B     		subs	r3, r3, #1
 230 001c 032B     		cmp	r3, #3
 231 001e 00F2B280 		bhi	.L13
 232 0022 DFE803F0 		tbb	[pc, r3]
 233              	.L15:
 234 0026 02       		.byte	(.L14-.L15)/2
ARM GAS  C:\Users\Simon\AppData\Local\Temp\ccmwFnmI.s 			page 10


 235 0027 17       		.byte	(.L16-.L15)/2
 236 0028 2C       		.byte	(.L17-.L15)/2
 237 0029 41       		.byte	(.L18-.L15)/2
 238              		.p2align 1
 239              	.L14:
  99:XYPlotter.c   ****                 P2_4_Write(0); //P2.1
 240              		.loc 1 99 0
 241 002a 0120     		movs	r0, #1
 242 002c FFF7FEFF 		bl	P2_3_Write
 243              	.LVL25:
 100:XYPlotter.c   ****                 P2_5_Write(0); //P1.2
 244              		.loc 1 100 0
 245 0030 0020     		movs	r0, #0
 246 0032 FFF7FEFF 		bl	P2_4_Write
 247              	.LVL26:
 101:XYPlotter.c   ****                 P2_6_Write(0); //P2.2
 248              		.loc 1 101 0
 249 0036 0020     		movs	r0, #0
 250 0038 FFF7FEFF 		bl	P2_5_Write
 251              	.LVL27:
 102:XYPlotter.c   ****                 stepCase++;
 252              		.loc 1 102 0
 253 003c 0020     		movs	r0, #0
 254 003e FFF7FEFF 		bl	P2_6_Write
 255              	.LVL28:
 103:XYPlotter.c   ****                 CyDelayUs(stepperWait);
 256              		.loc 1 103 0
 257 0042 574A     		ldr	r2, .L26+4
 258 0044 1378     		ldrb	r3, [r2]	@ zero_extendqisi2
 259 0046 0133     		adds	r3, r3, #1
 260 0048 1370     		strb	r3, [r2]
 104:XYPlotter.c   ****                 break;
 261              		.loc 1 104 0
 262 004a 40F2DC50 		movw	r0, #1500
 263 004e FFF7FEFF 		bl	CyDelayUs
 264              	.LVL29:
 105:XYPlotter.c   ****                 case 2:
 265              		.loc 1 105 0
 266 0052 98E0     		b	.L13
 267              	.L16:
 107:XYPlotter.c   ****                 P2_4_Write(1);
 268              		.loc 1 107 0
 269 0054 0020     		movs	r0, #0
 270 0056 FFF7FEFF 		bl	P2_3_Write
 271              	.LVL30:
 108:XYPlotter.c   ****                 P2_5_Write(0);
 272              		.loc 1 108 0
 273 005a 0120     		movs	r0, #1
 274 005c FFF7FEFF 		bl	P2_4_Write
 275              	.LVL31:
 109:XYPlotter.c   ****                 P2_6_Write(0);
 276              		.loc 1 109 0
 277 0060 0020     		movs	r0, #0
 278 0062 FFF7FEFF 		bl	P2_5_Write
 279              	.LVL32:
 110:XYPlotter.c   ****                 stepCase++;
 280              		.loc 1 110 0
ARM GAS  C:\Users\Simon\AppData\Local\Temp\ccmwFnmI.s 			page 11


 281 0066 0020     		movs	r0, #0
 282 0068 FFF7FEFF 		bl	P2_6_Write
 283              	.LVL33:
 111:XYPlotter.c   ****                 CyDelayUs(stepperWait);
 284              		.loc 1 111 0
 285 006c 4C4A     		ldr	r2, .L26+4
 286 006e 1378     		ldrb	r3, [r2]	@ zero_extendqisi2
 287 0070 0133     		adds	r3, r3, #1
 288 0072 1370     		strb	r3, [r2]
 112:XYPlotter.c   ****                 break;
 289              		.loc 1 112 0
 290 0074 40F2DC50 		movw	r0, #1500
 291 0078 FFF7FEFF 		bl	CyDelayUs
 292              	.LVL34:
 113:XYPlotter.c   ****                 case 3:
 293              		.loc 1 113 0
 294 007c 83E0     		b	.L13
 295              	.L17:
 115:XYPlotter.c   ****                 P2_4_Write(0);
 296              		.loc 1 115 0
 297 007e 0020     		movs	r0, #0
 298 0080 FFF7FEFF 		bl	P2_3_Write
 299              	.LVL35:
 116:XYPlotter.c   ****                 P2_5_Write(1);
 300              		.loc 1 116 0
 301 0084 0020     		movs	r0, #0
 302 0086 FFF7FEFF 		bl	P2_4_Write
 303              	.LVL36:
 117:XYPlotter.c   ****                 P2_6_Write(0);
 304              		.loc 1 117 0
 305 008a 0120     		movs	r0, #1
 306 008c FFF7FEFF 		bl	P2_5_Write
 307              	.LVL37:
 118:XYPlotter.c   ****                 stepCase++;
 308              		.loc 1 118 0
 309 0090 0020     		movs	r0, #0
 310 0092 FFF7FEFF 		bl	P2_6_Write
 311              	.LVL38:
 119:XYPlotter.c   ****                 CyDelayUs(stepperWait);
 312              		.loc 1 119 0
 313 0096 424A     		ldr	r2, .L26+4
 314 0098 1378     		ldrb	r3, [r2]	@ zero_extendqisi2
 315 009a 0133     		adds	r3, r3, #1
 316 009c 1370     		strb	r3, [r2]
 120:XYPlotter.c   ****                 break;
 317              		.loc 1 120 0
 318 009e 40F2DC50 		movw	r0, #1500
 319 00a2 FFF7FEFF 		bl	CyDelayUs
 320              	.LVL39:
 121:XYPlotter.c   ****                 case 4:
 321              		.loc 1 121 0
 322 00a6 6EE0     		b	.L13
 323              	.L18:
 123:XYPlotter.c   ****                 P2_4_Write(0);
 324              		.loc 1 123 0
 325 00a8 0020     		movs	r0, #0
 326 00aa FFF7FEFF 		bl	P2_3_Write
ARM GAS  C:\Users\Simon\AppData\Local\Temp\ccmwFnmI.s 			page 12


 327              	.LVL40:
 124:XYPlotter.c   ****                 P2_5_Write(0);
 328              		.loc 1 124 0
 329 00ae 0020     		movs	r0, #0
 330 00b0 FFF7FEFF 		bl	P2_4_Write
 331              	.LVL41:
 125:XYPlotter.c   ****                 P2_6_Write(1);
 332              		.loc 1 125 0
 333 00b4 0020     		movs	r0, #0
 334 00b6 FFF7FEFF 		bl	P2_5_Write
 335              	.LVL42:
 126:XYPlotter.c   ****                 CyDelayUs(stepperWait);
 336              		.loc 1 126 0
 337 00ba 0120     		movs	r0, #1
 338 00bc FFF7FEFF 		bl	P2_6_Write
 339              	.LVL43:
 127:XYPlotter.c   ****                 stepCase = 1; //reset stepCase
 340              		.loc 1 127 0
 341 00c0 40F2DC50 		movw	r0, #1500
 342 00c4 FFF7FEFF 		bl	CyDelayUs
 343              	.LVL44:
 128:XYPlotter.c   ****                 break;
 344              		.loc 1 128 0
 345 00c8 0122     		movs	r2, #1
 346 00ca 354B     		ldr	r3, .L26+4
 347 00cc 1A70     		strb	r2, [r3]
 129:XYPlotter.c   ****             }
 348              		.loc 1 129 0
 349 00ce 5AE0     		b	.L13
 350              	.L12:
 133:XYPlotter.c   ****                 case 4:
 351              		.loc 1 133 0
 352 00d0 334B     		ldr	r3, .L26+4
 353 00d2 1B78     		ldrb	r3, [r3]	@ zero_extendqisi2
 354 00d4 013B     		subs	r3, r3, #1
 355 00d6 032B     		cmp	r3, #3
 356 00d8 55D8     		bhi	.L13
 357 00da DFE803F0 		tbb	[pc, r3]
 358              	.L20:
 359 00de 41       		.byte	(.L19-.L20)/2
 360 00df 2C       		.byte	(.L21-.L20)/2
 361 00e0 17       		.byte	(.L22-.L20)/2
 362 00e1 02       		.byte	(.L23-.L20)/2
 363              		.p2align 1
 364              	.L23:
 135:XYPlotter.c   ****                 P2_4_Write(0);
 365              		.loc 1 135 0
 366 00e2 0020     		movs	r0, #0
 367 00e4 FFF7FEFF 		bl	P2_3_Write
 368              	.LVL45:
 136:XYPlotter.c   ****                 P2_5_Write(0);
 369              		.loc 1 136 0
 370 00e8 0020     		movs	r0, #0
 371 00ea FFF7FEFF 		bl	P2_4_Write
 372              	.LVL46:
 137:XYPlotter.c   ****                 P2_6_Write(1);
 373              		.loc 1 137 0
ARM GAS  C:\Users\Simon\AppData\Local\Temp\ccmwFnmI.s 			page 13


 374 00ee 0020     		movs	r0, #0
 375 00f0 FFF7FEFF 		bl	P2_5_Write
 376              	.LVL47:
 138:XYPlotter.c   ****                 stepCase--;
 377              		.loc 1 138 0
 378 00f4 0120     		movs	r0, #1
 379 00f6 FFF7FEFF 		bl	P2_6_Write
 380              	.LVL48:
 139:XYPlotter.c   ****                 CyDelayUs(stepperWait);
 381              		.loc 1 139 0
 382 00fa 294A     		ldr	r2, .L26+4
 383 00fc 1378     		ldrb	r3, [r2]	@ zero_extendqisi2
 384 00fe 013B     		subs	r3, r3, #1
 385 0100 1370     		strb	r3, [r2]
 140:XYPlotter.c   ****                 break;
 386              		.loc 1 140 0
 387 0102 40F2DC50 		movw	r0, #1500
 388 0106 FFF7FEFF 		bl	CyDelayUs
 389              	.LVL49:
 141:XYPlotter.c   ****                 case 3:
 390              		.loc 1 141 0
 391 010a 3CE0     		b	.L13
 392              	.L22:
 143:XYPlotter.c   ****                 P2_4_Write(0);
 393              		.loc 1 143 0
 394 010c 0020     		movs	r0, #0
 395 010e FFF7FEFF 		bl	P2_3_Write
 396              	.LVL50:
 144:XYPlotter.c   ****                 P2_5_Write(1);
 397              		.loc 1 144 0
 398 0112 0020     		movs	r0, #0
 399 0114 FFF7FEFF 		bl	P2_4_Write
 400              	.LVL51:
 145:XYPlotter.c   ****                 P2_6_Write(0);
 401              		.loc 1 145 0
 402 0118 0120     		movs	r0, #1
 403 011a FFF7FEFF 		bl	P2_5_Write
 404              	.LVL52:
 146:XYPlotter.c   ****                 stepCase--;
 405              		.loc 1 146 0
 406 011e 0020     		movs	r0, #0
 407 0120 FFF7FEFF 		bl	P2_6_Write
 408              	.LVL53:
 147:XYPlotter.c   ****                 CyDelayUs(stepperWait);
 409              		.loc 1 147 0
 410 0124 1E4A     		ldr	r2, .L26+4
 411 0126 1378     		ldrb	r3, [r2]	@ zero_extendqisi2
 412 0128 013B     		subs	r3, r3, #1
 413 012a 1370     		strb	r3, [r2]
 148:XYPlotter.c   ****                 break;
 414              		.loc 1 148 0
 415 012c 40F2DC50 		movw	r0, #1500
 416 0130 FFF7FEFF 		bl	CyDelayUs
 417              	.LVL54:
 149:XYPlotter.c   ****                 case 2:
 418              		.loc 1 149 0
 419 0134 27E0     		b	.L13
ARM GAS  C:\Users\Simon\AppData\Local\Temp\ccmwFnmI.s 			page 14


 420              	.L21:
 151:XYPlotter.c   ****                 P2_4_Write(1);
 421              		.loc 1 151 0
 422 0136 0020     		movs	r0, #0
 423 0138 FFF7FEFF 		bl	P2_3_Write
 424              	.LVL55:
 152:XYPlotter.c   ****                 P2_5_Write(0);
 425              		.loc 1 152 0
 426 013c 0120     		movs	r0, #1
 427 013e FFF7FEFF 		bl	P2_4_Write
 428              	.LVL56:
 153:XYPlotter.c   ****                 P2_6_Write(0);
 429              		.loc 1 153 0
 430 0142 0020     		movs	r0, #0
 431 0144 FFF7FEFF 		bl	P2_5_Write
 432              	.LVL57:
 154:XYPlotter.c   ****                 stepCase--;
 433              		.loc 1 154 0
 434 0148 0020     		movs	r0, #0
 435 014a FFF7FEFF 		bl	P2_6_Write
 436              	.LVL58:
 155:XYPlotter.c   ****                 CyDelayUs(stepperWait);
 437              		.loc 1 155 0
 438 014e 144A     		ldr	r2, .L26+4
 439 0150 1378     		ldrb	r3, [r2]	@ zero_extendqisi2
 440 0152 013B     		subs	r3, r3, #1
 441 0154 1370     		strb	r3, [r2]
 156:XYPlotter.c   ****                 break;
 442              		.loc 1 156 0
 443 0156 40F2DC50 		movw	r0, #1500
 444 015a FFF7FEFF 		bl	CyDelayUs
 445              	.LVL59:
 157:XYPlotter.c   ****                 case 1:
 446              		.loc 1 157 0
 447 015e 12E0     		b	.L13
 448              	.L19:
 159:XYPlotter.c   ****                 P2_4_Write(0);
 449              		.loc 1 159 0
 450 0160 0120     		movs	r0, #1
 451 0162 FFF7FEFF 		bl	P2_3_Write
 452              	.LVL60:
 160:XYPlotter.c   ****                 P2_5_Write(0);
 453              		.loc 1 160 0
 454 0166 0020     		movs	r0, #0
 455 0168 FFF7FEFF 		bl	P2_4_Write
 456              	.LVL61:
 161:XYPlotter.c   ****                 P2_6_Write(0);
 457              		.loc 1 161 0
 458 016c 0020     		movs	r0, #0
 459 016e FFF7FEFF 		bl	P2_5_Write
 460              	.LVL62:
 162:XYPlotter.c   ****                 stepCase = 4; //reset stepcase
 461              		.loc 1 162 0
 462 0172 0020     		movs	r0, #0
 463 0174 FFF7FEFF 		bl	P2_6_Write
 464              	.LVL63:
 163:XYPlotter.c   ****                 CyDelayUs(stepperWait);
ARM GAS  C:\Users\Simon\AppData\Local\Temp\ccmwFnmI.s 			page 15


 465              		.loc 1 163 0
 466 0178 0422     		movs	r2, #4
 467 017a 094B     		ldr	r3, .L26+4
 468 017c 1A70     		strb	r2, [r3]
 164:XYPlotter.c   ****                 break;
 469              		.loc 1 164 0
 470 017e 40F2DC50 		movw	r0, #1500
 471 0182 FFF7FEFF 		bl	CyDelayUs
 472              	.LVL64:
 473              	.L13:
  95:XYPlotter.c   **** 		if (moveSteps > 0){  //positiv retning?(med uret)
 474              		.loc 1 95 0 discriminator 2
 475 0186 0134     		adds	r4, r4, #1
 476              	.LVL65:
 477              	.L11:
  95:XYPlotter.c   **** 		if (moveSteps > 0){  //positiv retning?(med uret)
 478              		.loc 1 95 0 is_stmt 0 discriminator 1
 479 0188 85EAE573 		eor	r3, r5, r5, asr #31
 480 018c A3EBE573 		sub	r3, r3, r5, asr #31
 481 0190 9C42     		cmp	r4, r3
 482 0192 FFF63EAF 		blt	.L24
 483              	.LBE2:
 169:XYPlotter.c   **** }
 484              		.loc 1 169 0 is_stmt 1
 485 0196 FFF7FEFF 		bl	steppersOff
 486              	.LVL66:
 487 019a 38BD     		pop	{r3, r4, r5, pc}
 488              	.LVL67:
 489              	.L27:
 490              		.align	2
 491              	.L26:
 492 019c 00005F43 		.word	1130299392
 493 01a0 00000000 		.word	stepCase
 494              		.cfi_endproc
 495              	.LFE66:
 496              		.size	moveMotorX, .-moveMotorX
 497              		.section	.text.moveMotorY,"ax",%progbits
 498              		.align	2
 499              		.global	moveMotorY
 500              		.thumb
 501              		.thumb_func
 502              		.type	moveMotorY, %function
 503              	moveMotorY:
 504              	.LFB67:
 172:XYPlotter.c   ****     int moveSteps = squares * STEPS_PER_SQUARE;
 505              		.loc 1 172 0
 506              		.cfi_startproc
 507              		@ args = 0, pretend = 0, frame = 0
 508              		@ frame_needed = 0, uses_anonymous_args = 0
 509              	.LVL68:
 510 0000 38B5     		push	{r3, r4, r5, lr}
 511              		.cfi_def_cfa_offset 16
 512              		.cfi_offset 3, -16
 513              		.cfi_offset 4, -12
 514              		.cfi_offset 5, -8
 515              		.cfi_offset 14, -4
 173:XYPlotter.c   **** 	for(int i = 0; i < abs(moveSteps); i++){
ARM GAS  C:\Users\Simon\AppData\Local\Temp\ccmwFnmI.s 			page 16


 516              		.loc 1 173 0
 517 0002 6649     		ldr	r1, .L44
 518 0004 FFF7FEFF 		bl	__aeabi_fmul
 519              	.LVL69:
 520 0008 FFF7FEFF 		bl	__aeabi_f2iz
 521              	.LVL70:
 522 000c 0546     		mov	r5, r0
 523              	.LVL71:
 524              	.LBB3:
 174:XYPlotter.c   **** 		if (moveSteps > 0){  //positiv retning?(med uret)
 525              		.loc 1 174 0
 526 000e 0024     		movs	r4, #0
 527 0010 BAE0     		b	.L29
 528              	.LVL72:
 529              	.L42:
 175:XYPlotter.c   ****             switch(stepCase){
 530              		.loc 1 175 0
 531 0012 002D     		cmp	r5, #0
 532 0014 5CDD     		ble	.L30
 176:XYPlotter.c   ****                 case 1:
 533              		.loc 1 176 0
 534 0016 624B     		ldr	r3, .L44+4
 535 0018 1B78     		ldrb	r3, [r3]	@ zero_extendqisi2
 536 001a 013B     		subs	r3, r3, #1
 537 001c 032B     		cmp	r3, #3
 538 001e 00F2B280 		bhi	.L31
 539 0022 DFE803F0 		tbb	[pc, r3]
 540              	.L33:
 541 0026 02       		.byte	(.L32-.L33)/2
 542 0027 17       		.byte	(.L34-.L33)/2
 543 0028 2C       		.byte	(.L35-.L33)/2
 544 0029 41       		.byte	(.L36-.L33)/2
 545              		.p2align 1
 546              	.L32:
 178:XYPlotter.c   ****                 P3_4_Write(0); //P3.1
 547              		.loc 1 178 0
 548 002a 0120     		movs	r0, #1
 549 002c FFF7FEFF 		bl	P3_3_Write
 550              	.LVL73:
 179:XYPlotter.c   ****                 P3_5_Write(0); //P1.2
 551              		.loc 1 179 0
 552 0030 0020     		movs	r0, #0
 553 0032 FFF7FEFF 		bl	P3_4_Write
 554              	.LVL74:
 180:XYPlotter.c   ****                 P3_6_Write(0); //P3.2
 555              		.loc 1 180 0
 556 0036 0020     		movs	r0, #0
 557 0038 FFF7FEFF 		bl	P3_5_Write
 558              	.LVL75:
 181:XYPlotter.c   ****                 stepCase++;
 559              		.loc 1 181 0
 560 003c 0020     		movs	r0, #0
 561 003e FFF7FEFF 		bl	P3_6_Write
 562              	.LVL76:
 182:XYPlotter.c   ****                 CyDelayUs(stepperWait);
 563              		.loc 1 182 0
 564 0042 574A     		ldr	r2, .L44+4
ARM GAS  C:\Users\Simon\AppData\Local\Temp\ccmwFnmI.s 			page 17


 565 0044 1378     		ldrb	r3, [r2]	@ zero_extendqisi2
 566 0046 0133     		adds	r3, r3, #1
 567 0048 1370     		strb	r3, [r2]
 183:XYPlotter.c   ****                 break;
 568              		.loc 1 183 0
 569 004a 40F2DC50 		movw	r0, #1500
 570 004e FFF7FEFF 		bl	CyDelayUs
 571              	.LVL77:
 184:XYPlotter.c   ****                 case 2:
 572              		.loc 1 184 0
 573 0052 98E0     		b	.L31
 574              	.L34:
 186:XYPlotter.c   ****                 P3_4_Write(1);
 575              		.loc 1 186 0
 576 0054 0020     		movs	r0, #0
 577 0056 FFF7FEFF 		bl	P3_3_Write
 578              	.LVL78:
 187:XYPlotter.c   ****                 P3_5_Write(0);
 579              		.loc 1 187 0
 580 005a 0120     		movs	r0, #1
 581 005c FFF7FEFF 		bl	P3_4_Write
 582              	.LVL79:
 188:XYPlotter.c   ****                 P3_6_Write(0);
 583              		.loc 1 188 0
 584 0060 0020     		movs	r0, #0
 585 0062 FFF7FEFF 		bl	P3_5_Write
 586              	.LVL80:
 189:XYPlotter.c   ****                 stepCase++;
 587              		.loc 1 189 0
 588 0066 0020     		movs	r0, #0
 589 0068 FFF7FEFF 		bl	P3_6_Write
 590              	.LVL81:
 190:XYPlotter.c   ****                 CyDelayUs(stepperWait);
 591              		.loc 1 190 0
 592 006c 4C4A     		ldr	r2, .L44+4
 593 006e 1378     		ldrb	r3, [r2]	@ zero_extendqisi2
 594 0070 0133     		adds	r3, r3, #1
 595 0072 1370     		strb	r3, [r2]
 191:XYPlotter.c   ****                 break;
 596              		.loc 1 191 0
 597 0074 40F2DC50 		movw	r0, #1500
 598 0078 FFF7FEFF 		bl	CyDelayUs
 599              	.LVL82:
 192:XYPlotter.c   ****                 case 3:
 600              		.loc 1 192 0
 601 007c 83E0     		b	.L31
 602              	.L35:
 194:XYPlotter.c   ****                 P3_4_Write(0);
 603              		.loc 1 194 0
 604 007e 0020     		movs	r0, #0
 605 0080 FFF7FEFF 		bl	P3_3_Write
 606              	.LVL83:
 195:XYPlotter.c   ****                 P3_5_Write(1);
 607              		.loc 1 195 0
 608 0084 0020     		movs	r0, #0
 609 0086 FFF7FEFF 		bl	P3_4_Write
 610              	.LVL84:
ARM GAS  C:\Users\Simon\AppData\Local\Temp\ccmwFnmI.s 			page 18


 196:XYPlotter.c   ****                 P3_6_Write(0);
 611              		.loc 1 196 0
 612 008a 0120     		movs	r0, #1
 613 008c FFF7FEFF 		bl	P3_5_Write
 614              	.LVL85:
 197:XYPlotter.c   ****                 stepCase++;
 615              		.loc 1 197 0
 616 0090 0020     		movs	r0, #0
 617 0092 FFF7FEFF 		bl	P3_6_Write
 618              	.LVL86:
 198:XYPlotter.c   ****                 CyDelayUs(stepperWait);
 619              		.loc 1 198 0
 620 0096 424A     		ldr	r2, .L44+4
 621 0098 1378     		ldrb	r3, [r2]	@ zero_extendqisi2
 622 009a 0133     		adds	r3, r3, #1
 623 009c 1370     		strb	r3, [r2]
 199:XYPlotter.c   ****                 break;
 624              		.loc 1 199 0
 625 009e 40F2DC50 		movw	r0, #1500
 626 00a2 FFF7FEFF 		bl	CyDelayUs
 627              	.LVL87:
 200:XYPlotter.c   ****                 case 4:
 628              		.loc 1 200 0
 629 00a6 6EE0     		b	.L31
 630              	.L36:
 202:XYPlotter.c   ****                 P3_4_Write(0);
 631              		.loc 1 202 0
 632 00a8 0020     		movs	r0, #0
 633 00aa FFF7FEFF 		bl	P3_3_Write
 634              	.LVL88:
 203:XYPlotter.c   ****                 P3_5_Write(0);
 635              		.loc 1 203 0
 636 00ae 0020     		movs	r0, #0
 637 00b0 FFF7FEFF 		bl	P3_4_Write
 638              	.LVL89:
 204:XYPlotter.c   ****                 P3_6_Write(1);
 639              		.loc 1 204 0
 640 00b4 0020     		movs	r0, #0
 641 00b6 FFF7FEFF 		bl	P3_5_Write
 642              	.LVL90:
 205:XYPlotter.c   ****                 CyDelayUs(stepperWait);
 643              		.loc 1 205 0
 644 00ba 0120     		movs	r0, #1
 645 00bc FFF7FEFF 		bl	P3_6_Write
 646              	.LVL91:
 206:XYPlotter.c   ****                 stepCase = 1; //reset stepCase
 647              		.loc 1 206 0
 648 00c0 40F2DC50 		movw	r0, #1500
 649 00c4 FFF7FEFF 		bl	CyDelayUs
 650              	.LVL92:
 207:XYPlotter.c   ****                 break;
 651              		.loc 1 207 0
 652 00c8 0122     		movs	r2, #1
 653 00ca 354B     		ldr	r3, .L44+4
 654 00cc 1A70     		strb	r2, [r3]
 208:XYPlotter.c   ****             }
 655              		.loc 1 208 0
ARM GAS  C:\Users\Simon\AppData\Local\Temp\ccmwFnmI.s 			page 19


 656 00ce 5AE0     		b	.L31
 657              	.L30:
 212:XYPlotter.c   ****                 case 4:
 658              		.loc 1 212 0
 659 00d0 334B     		ldr	r3, .L44+4
 660 00d2 1B78     		ldrb	r3, [r3]	@ zero_extendqisi2
 661 00d4 013B     		subs	r3, r3, #1
 662 00d6 032B     		cmp	r3, #3
 663 00d8 55D8     		bhi	.L31
 664 00da DFE803F0 		tbb	[pc, r3]
 665              	.L38:
 666 00de 41       		.byte	(.L37-.L38)/2
 667 00df 2C       		.byte	(.L39-.L38)/2
 668 00e0 17       		.byte	(.L40-.L38)/2
 669 00e1 02       		.byte	(.L41-.L38)/2
 670              		.p2align 1
 671              	.L41:
 214:XYPlotter.c   ****                 P3_4_Write(0);
 672              		.loc 1 214 0
 673 00e2 0020     		movs	r0, #0
 674 00e4 FFF7FEFF 		bl	P3_3_Write
 675              	.LVL93:
 215:XYPlotter.c   ****                 P3_5_Write(0);
 676              		.loc 1 215 0
 677 00e8 0020     		movs	r0, #0
 678 00ea FFF7FEFF 		bl	P3_4_Write
 679              	.LVL94:
 216:XYPlotter.c   ****                 P3_6_Write(1);
 680              		.loc 1 216 0
 681 00ee 0020     		movs	r0, #0
 682 00f0 FFF7FEFF 		bl	P3_5_Write
 683              	.LVL95:
 217:XYPlotter.c   ****                 stepCase--;
 684              		.loc 1 217 0
 685 00f4 0120     		movs	r0, #1
 686 00f6 FFF7FEFF 		bl	P3_6_Write
 687              	.LVL96:
 218:XYPlotter.c   ****                 CyDelayUs(stepperWait);
 688              		.loc 1 218 0
 689 00fa 294A     		ldr	r2, .L44+4
 690 00fc 1378     		ldrb	r3, [r2]	@ zero_extendqisi2
 691 00fe 013B     		subs	r3, r3, #1
 692 0100 1370     		strb	r3, [r2]
 219:XYPlotter.c   ****                 break;
 693              		.loc 1 219 0
 694 0102 40F2DC50 		movw	r0, #1500
 695 0106 FFF7FEFF 		bl	CyDelayUs
 696              	.LVL97:
 220:XYPlotter.c   ****                 case 3:
 697              		.loc 1 220 0
 698 010a 3CE0     		b	.L31
 699              	.L40:
 222:XYPlotter.c   ****                 P3_4_Write(0);
 700              		.loc 1 222 0
 701 010c 0020     		movs	r0, #0
 702 010e FFF7FEFF 		bl	P3_3_Write
 703              	.LVL98:
ARM GAS  C:\Users\Simon\AppData\Local\Temp\ccmwFnmI.s 			page 20


 223:XYPlotter.c   ****                 P3_5_Write(1);
 704              		.loc 1 223 0
 705 0112 0020     		movs	r0, #0
 706 0114 FFF7FEFF 		bl	P3_4_Write
 707              	.LVL99:
 224:XYPlotter.c   ****                 P3_6_Write(0);
 708              		.loc 1 224 0
 709 0118 0120     		movs	r0, #1
 710 011a FFF7FEFF 		bl	P3_5_Write
 711              	.LVL100:
 225:XYPlotter.c   ****                 stepCase--;
 712              		.loc 1 225 0
 713 011e 0020     		movs	r0, #0
 714 0120 FFF7FEFF 		bl	P3_6_Write
 715              	.LVL101:
 226:XYPlotter.c   ****                 CyDelayUs(stepperWait);
 716              		.loc 1 226 0
 717 0124 1E4A     		ldr	r2, .L44+4
 718 0126 1378     		ldrb	r3, [r2]	@ zero_extendqisi2
 719 0128 013B     		subs	r3, r3, #1
 720 012a 1370     		strb	r3, [r2]
 227:XYPlotter.c   ****                 break;
 721              		.loc 1 227 0
 722 012c 40F2DC50 		movw	r0, #1500
 723 0130 FFF7FEFF 		bl	CyDelayUs
 724              	.LVL102:
 228:XYPlotter.c   ****                 case 2:
 725              		.loc 1 228 0
 726 0134 27E0     		b	.L31
 727              	.L39:
 230:XYPlotter.c   ****                 P3_4_Write(1);
 728              		.loc 1 230 0
 729 0136 0020     		movs	r0, #0
 730 0138 FFF7FEFF 		bl	P3_3_Write
 731              	.LVL103:
 231:XYPlotter.c   ****                 P3_5_Write(0);
 732              		.loc 1 231 0
 733 013c 0120     		movs	r0, #1
 734 013e FFF7FEFF 		bl	P3_4_Write
 735              	.LVL104:
 232:XYPlotter.c   ****                 P3_6_Write(0);
 736              		.loc 1 232 0
 737 0142 0020     		movs	r0, #0
 738 0144 FFF7FEFF 		bl	P3_5_Write
 739              	.LVL105:
 233:XYPlotter.c   ****                 stepCase--;
 740              		.loc 1 233 0
 741 0148 0020     		movs	r0, #0
 742 014a FFF7FEFF 		bl	P3_6_Write
 743              	.LVL106:
 234:XYPlotter.c   ****                 CyDelayUs(stepperWait);
 744              		.loc 1 234 0
 745 014e 144A     		ldr	r2, .L44+4
 746 0150 1378     		ldrb	r3, [r2]	@ zero_extendqisi2
 747 0152 013B     		subs	r3, r3, #1
 748 0154 1370     		strb	r3, [r2]
 235:XYPlotter.c   ****                 break;
ARM GAS  C:\Users\Simon\AppData\Local\Temp\ccmwFnmI.s 			page 21


 749              		.loc 1 235 0
 750 0156 40F2DC50 		movw	r0, #1500
 751 015a FFF7FEFF 		bl	CyDelayUs
 752              	.LVL107:
 236:XYPlotter.c   ****                 case 1:
 753              		.loc 1 236 0
 754 015e 12E0     		b	.L31
 755              	.L37:
 238:XYPlotter.c   ****                 P3_4_Write(0);
 756              		.loc 1 238 0
 757 0160 0120     		movs	r0, #1
 758 0162 FFF7FEFF 		bl	P3_3_Write
 759              	.LVL108:
 239:XYPlotter.c   ****                 P3_5_Write(0);
 760              		.loc 1 239 0
 761 0166 0020     		movs	r0, #0
 762 0168 FFF7FEFF 		bl	P3_4_Write
 763              	.LVL109:
 240:XYPlotter.c   ****                 P3_6_Write(0);
 764              		.loc 1 240 0
 765 016c 0020     		movs	r0, #0
 766 016e FFF7FEFF 		bl	P3_5_Write
 767              	.LVL110:
 241:XYPlotter.c   ****                 stepCase = 4; //reset stepcase
 768              		.loc 1 241 0
 769 0172 0020     		movs	r0, #0
 770 0174 FFF7FEFF 		bl	P3_6_Write
 771              	.LVL111:
 242:XYPlotter.c   ****                 CyDelayUs(stepperWait);
 772              		.loc 1 242 0
 773 0178 0422     		movs	r2, #4
 774 017a 094B     		ldr	r3, .L44+4
 775 017c 1A70     		strb	r2, [r3]
 243:XYPlotter.c   ****                 break;
 776              		.loc 1 243 0
 777 017e 40F2DC50 		movw	r0, #1500
 778 0182 FFF7FEFF 		bl	CyDelayUs
 779              	.LVL112:
 780              	.L31:
 174:XYPlotter.c   **** 		if (moveSteps > 0){  //positiv retning?(med uret)
 781              		.loc 1 174 0 discriminator 2
 782 0186 0134     		adds	r4, r4, #1
 783              	.LVL113:
 784              	.L29:
 174:XYPlotter.c   **** 		if (moveSteps > 0){  //positiv retning?(med uret)
 785              		.loc 1 174 0 is_stmt 0 discriminator 1
 786 0188 85EAE573 		eor	r3, r5, r5, asr #31
 787 018c A3EBE573 		sub	r3, r3, r5, asr #31
 788 0190 9C42     		cmp	r4, r3
 789 0192 FFF63EAF 		blt	.L42
 790              	.LBE3:
 248:XYPlotter.c   **** }
 791              		.loc 1 248 0 is_stmt 1
 792 0196 FFF7FEFF 		bl	steppersOff
 793              	.LVL114:
 794 019a 38BD     		pop	{r3, r4, r5, pc}
 795              	.LVL115:
ARM GAS  C:\Users\Simon\AppData\Local\Temp\ccmwFnmI.s 			page 22


 796              	.L45:
 797              		.align	2
 798              	.L44:
 799 019c 00005F43 		.word	1130299392
 800 01a0 00000000 		.word	stepCase
 801              		.cfi_endproc
 802              	.LFE67:
 803              		.size	moveMotorY, .-moveMotorY
 804              		.global	__aeabi_i2f
 805              		.global	__aeabi_i2d
 806              		.global	__aeabi_dsub
 807              		.global	__aeabi_d2f
 808              		.global	__aeabi_dadd
 809              		.section	.text.moveChessPiece,"ax",%progbits
 810              		.align	2
 811              		.global	moveChessPiece
 812              		.thumb
 813              		.thumb_func
 814              		.type	moveChessPiece, %function
 815              	moveChessPiece:
 816              	.LFB64:
  16:XYPlotter.c   ****     // Udtryk for at rykke fra currentSquare til fromSquare
 817              		.loc 1 16 0
 818              		.cfi_startproc
 819              		@ args = 0, pretend = 0, frame = 16
 820              		@ frame_needed = 0, uses_anonymous_args = 0
 821              	.LVL116:
 822 0000 F0B5     		push	{r4, r5, r6, r7, lr}
 823              		.cfi_def_cfa_offset 20
 824              		.cfi_offset 4, -20
 825              		.cfi_offset 5, -16
 826              		.cfi_offset 6, -12
 827              		.cfi_offset 7, -8
 828              		.cfi_offset 14, -4
 829 0002 85B0     		sub	sp, sp, #20
 830              		.cfi_def_cfa_offset 40
 831 0004 0546     		mov	r5, r0
 832 0006 0C46     		mov	r4, r1
  18:XYPlotter.c   ****     
 833              		.loc 1 18 0
 834 0008 0246     		mov	r2, r0
 835 000a 534B     		ldr	r3, .L52
 836 000c 1978     		ldrb	r1, [r3]	@ zero_extendqisi2
 837              	.LVL117:
 838 000e 02A8     		add	r0, sp, #8
 839              	.LVL118:
 840 0010 FFF7FEFF 		bl	calculateSquares
 841              	.LVL119:
  21:XYPlotter.c   ****     moveMotorY(moveToStart.y);
 842              		.loc 1 21 0
 843 0014 0298     		ldr	r0, [sp, #8]
 844 0016 FFF7FEFF 		bl	__aeabi_i2f
 845              	.LVL120:
 846 001a FFF7FEFF 		bl	moveMotorX
 847              	.LVL121:
  22:XYPlotter.c   ****     
 848              		.loc 1 22 0
ARM GAS  C:\Users\Simon\AppData\Local\Temp\ccmwFnmI.s 			page 23


 849 001e 0398     		ldr	r0, [sp, #12]
 850 0020 FFF7FEFF 		bl	__aeabi_i2f
 851              	.LVL122:
 852 0024 FFF7FEFF 		bl	moveMotorY
 853              	.LVL123:
  24:XYPlotter.c   ****     
 854              		.loc 1 24 0
 855 0028 FFF7FEFF 		bl	servoOn
 856              	.LVL124:
  26:XYPlotter.c   ****     
 857              		.loc 1 26 0
 858 002c 2246     		mov	r2, r4
 859 002e 2946     		mov	r1, r5
 860 0030 6846     		mov	r0, sp
 861 0032 FFF7FEFF 		bl	calculateSquares
 862              	.LVL125:
  28:XYPlotter.c   ****     moveMotorX(0.5);
 863              		.loc 1 28 0
 864 0036 009D     		ldr	r5, [sp]
 865 0038 002D     		cmp	r5, #0
 866 003a 44DB     		blt	.L47
  29:XYPlotter.c   ****         if(stepsToMove.y>=0){ //Positv y
 867              		.loc 1 29 0
 868 003c 4FF07C50 		mov	r0, #1056964608
 869 0040 FFF7FEFF 		bl	moveMotorX
 870              	.LVL126:
  30:XYPlotter.c   ****             moveMotorY(0.5);
 871              		.loc 1 30 0
 872 0044 019E     		ldr	r6, [sp, #4]
 873 0046 002E     		cmp	r6, #0
 874 0048 1EDB     		blt	.L48
  31:XYPlotter.c   ****             moveMotorY(stepsToMove.y-1);
 875              		.loc 1 31 0
 876 004a 4FF07C57 		mov	r7, #1056964608
 877 004e 3846     		mov	r0, r7
 878 0050 FFF7FEFF 		bl	moveMotorY
 879              	.LVL127:
  32:XYPlotter.c   ****             moveMotorX(stepsToMove.x-0.5);
 880              		.loc 1 32 0
 881 0054 701E     		subs	r0, r6, #1
 882 0056 FFF7FEFF 		bl	__aeabi_i2f
 883              	.LVL128:
 884 005a FFF7FEFF 		bl	moveMotorY
 885              	.LVL129:
  33:XYPlotter.c   ****             moveMotorY(0.5);
 886              		.loc 1 33 0
 887 005e 2846     		mov	r0, r5
 888 0060 FFF7FEFF 		bl	__aeabi_i2d
 889              	.LVL130:
 890 0064 0022     		movs	r2, #0
 891 0066 3D4B     		ldr	r3, .L52+4
 892 0068 FFF7FEFF 		bl	__aeabi_dsub
 893              	.LVL131:
 894 006c FFF7FEFF 		bl	__aeabi_d2f
 895              	.LVL132:
 896 0070 FFF7FEFF 		bl	moveMotorX
 897              	.LVL133:
ARM GAS  C:\Users\Simon\AppData\Local\Temp\ccmwFnmI.s 			page 24


  34:XYPlotter.c   ****             CyDelay(1000);
 898              		.loc 1 34 0
 899 0074 3846     		mov	r0, r7
 900 0076 FFF7FEFF 		bl	moveMotorY
 901              	.LVL134:
  35:XYPlotter.c   ****             servoOff(); //sluk magnet
 902              		.loc 1 35 0
 903 007a 4FF47A70 		mov	r0, #1000
 904 007e FFF7FEFF 		bl	CyDelay
 905              	.LVL135:
  36:XYPlotter.c   ****         }
 906              		.loc 1 36 0
 907 0082 FFF7FEFF 		bl	servoOff
 908              	.LVL136:
 909 0086 62E0     		b	.L49
 910              	.L48:
  39:XYPlotter.c   ****             moveMotorY(stepsToMove.y+1);
 911              		.loc 1 39 0
 912 0088 4FF03F47 		mov	r7, #-1090519040
 913 008c 3846     		mov	r0, r7
 914 008e FFF7FEFF 		bl	moveMotorY
 915              	.LVL137:
  40:XYPlotter.c   ****             moveMotorX(stepsToMove.x-0.5);
 916              		.loc 1 40 0
 917 0092 701C     		adds	r0, r6, #1
 918 0094 FFF7FEFF 		bl	__aeabi_i2f
 919              	.LVL138:
 920 0098 FFF7FEFF 		bl	moveMotorY
 921              	.LVL139:
  41:XYPlotter.c   ****             moveMotorY(-0.5);
 922              		.loc 1 41 0
 923 009c 2846     		mov	r0, r5
 924 009e FFF7FEFF 		bl	__aeabi_i2d
 925              	.LVL140:
 926 00a2 0022     		movs	r2, #0
 927 00a4 2D4B     		ldr	r3, .L52+4
 928 00a6 FFF7FEFF 		bl	__aeabi_dsub
 929              	.LVL141:
 930 00aa FFF7FEFF 		bl	__aeabi_d2f
 931              	.LVL142:
 932 00ae FFF7FEFF 		bl	moveMotorX
 933              	.LVL143:
  42:XYPlotter.c   ****             CyDelay(1000);
 934              		.loc 1 42 0
 935 00b2 3846     		mov	r0, r7
 936 00b4 FFF7FEFF 		bl	moveMotorY
 937              	.LVL144:
  43:XYPlotter.c   ****             servoOff(); //sluk magnet
 938              		.loc 1 43 0
 939 00b8 4FF47A70 		mov	r0, #1000
 940 00bc FFF7FEFF 		bl	CyDelay
 941              	.LVL145:
  44:XYPlotter.c   ****         }
 942              		.loc 1 44 0
 943 00c0 FFF7FEFF 		bl	servoOff
 944              	.LVL146:
 945 00c4 43E0     		b	.L49
ARM GAS  C:\Users\Simon\AppData\Local\Temp\ccmwFnmI.s 			page 25


 946              	.L47:
  48:XYPlotter.c   ****         if(stepsToMove.y>=0){ //Positv y
 947              		.loc 1 48 0
 948 00c6 4FF03F40 		mov	r0, #-1090519040
 949 00ca FFF7FEFF 		bl	moveMotorX
 950              	.LVL147:
  49:XYPlotter.c   ****             moveMotorY(0.5);
 951              		.loc 1 49 0
 952 00ce 019E     		ldr	r6, [sp, #4]
 953 00d0 002E     		cmp	r6, #0
 954 00d2 1EDB     		blt	.L50
  50:XYPlotter.c   ****             moveMotorY(stepsToMove.y-1);
 955              		.loc 1 50 0
 956 00d4 4FF07C57 		mov	r7, #1056964608
 957 00d8 3846     		mov	r0, r7
 958 00da FFF7FEFF 		bl	moveMotorY
 959              	.LVL148:
  51:XYPlotter.c   ****             moveMotorX(stepsToMove.x+0.5);
 960              		.loc 1 51 0
 961 00de 701E     		subs	r0, r6, #1
 962 00e0 FFF7FEFF 		bl	__aeabi_i2f
 963              	.LVL149:
 964 00e4 FFF7FEFF 		bl	moveMotorY
 965              	.LVL150:
  52:XYPlotter.c   ****             moveMotorY(0.5);
 966              		.loc 1 52 0
 967 00e8 2846     		mov	r0, r5
 968 00ea FFF7FEFF 		bl	__aeabi_i2d
 969              	.LVL151:
 970 00ee 0022     		movs	r2, #0
 971 00f0 1A4B     		ldr	r3, .L52+4
 972 00f2 FFF7FEFF 		bl	__aeabi_dadd
 973              	.LVL152:
 974 00f6 FFF7FEFF 		bl	__aeabi_d2f
 975              	.LVL153:
 976 00fa FFF7FEFF 		bl	moveMotorX
 977              	.LVL154:
  53:XYPlotter.c   ****             CyDelay(1000);
 978              		.loc 1 53 0
 979 00fe 3846     		mov	r0, r7
 980 0100 FFF7FEFF 		bl	moveMotorY
 981              	.LVL155:
  54:XYPlotter.c   ****             servoOff(); //sluk magnet
 982              		.loc 1 54 0
 983 0104 4FF47A70 		mov	r0, #1000
 984 0108 FFF7FEFF 		bl	CyDelay
 985              	.LVL156:
  55:XYPlotter.c   ****         }
 986              		.loc 1 55 0
 987 010c FFF7FEFF 		bl	servoOff
 988              	.LVL157:
 989 0110 1DE0     		b	.L49
 990              	.L50:
  58:XYPlotter.c   ****             moveMotorY(stepsToMove.y+1);
 991              		.loc 1 58 0
 992 0112 4FF03F47 		mov	r7, #-1090519040
 993 0116 3846     		mov	r0, r7
ARM GAS  C:\Users\Simon\AppData\Local\Temp\ccmwFnmI.s 			page 26


 994 0118 FFF7FEFF 		bl	moveMotorY
 995              	.LVL158:
  59:XYPlotter.c   ****             moveMotorX(stepsToMove.x+0.5);
 996              		.loc 1 59 0
 997 011c 701C     		adds	r0, r6, #1
 998 011e FFF7FEFF 		bl	__aeabi_i2f
 999              	.LVL159:
 1000 0122 FFF7FEFF 		bl	moveMotorY
 1001              	.LVL160:
  60:XYPlotter.c   ****             moveMotorY(-0.5);
 1002              		.loc 1 60 0
 1003 0126 2846     		mov	r0, r5
 1004 0128 FFF7FEFF 		bl	__aeabi_i2d
 1005              	.LVL161:
 1006 012c 0022     		movs	r2, #0
 1007 012e 0B4B     		ldr	r3, .L52+4
 1008 0130 FFF7FEFF 		bl	__aeabi_dadd
 1009              	.LVL162:
 1010 0134 FFF7FEFF 		bl	__aeabi_d2f
 1011              	.LVL163:
 1012 0138 FFF7FEFF 		bl	moveMotorX
 1013              	.LVL164:
  61:XYPlotter.c   ****             CyDelay(1000);
 1014              		.loc 1 61 0
 1015 013c 3846     		mov	r0, r7
 1016 013e FFF7FEFF 		bl	moveMotorY
 1017              	.LVL165:
  62:XYPlotter.c   ****             servoOff(); //sluk magnet
 1018              		.loc 1 62 0
 1019 0142 4FF47A70 		mov	r0, #1000
 1020 0146 FFF7FEFF 		bl	CyDelay
 1021              	.LVL166:
  63:XYPlotter.c   ****         }
 1022              		.loc 1 63 0
 1023 014a FFF7FEFF 		bl	servoOff
 1024              	.LVL167:
 1025              	.L49:
  70:XYPlotter.c   ****     
 1026              		.loc 1 70 0
 1027 014e 024B     		ldr	r3, .L52
 1028 0150 1C70     		strb	r4, [r3]
  73:XYPlotter.c   **** 
 1029              		.loc 1 73 0
 1030 0152 05B0     		add	sp, sp, #20
 1031              		.cfi_def_cfa_offset 20
 1032              		@ sp needed
 1033 0154 F0BD     		pop	{r4, r5, r6, r7, pc}
 1034              	.L53:
 1035 0156 00BF     		.align	2
 1036              	.L52:
 1037 0158 00000000 		.word	currentSquare
 1038 015c 0000E03F 		.word	1071644672
 1039              		.cfi_endproc
 1040              	.LFE64:
 1041              		.size	moveChessPiece, .-moveChessPiece
 1042              		.section	.text.XYPlotterTest,"ax",%progbits
 1043              		.align	2
ARM GAS  C:\Users\Simon\AppData\Local\Temp\ccmwFnmI.s 			page 27


 1044              		.global	XYPlotterTest
 1045              		.thumb
 1046              		.thumb_func
 1047              		.type	XYPlotterTest, %function
 1048              	XYPlotterTest:
 1049              	.LFB71:
 275:XYPlotter.c   **** }
 276:XYPlotter.c   **** 
 277:XYPlotter.c   **** void XYPlotterTest()
 278:XYPlotter.c   **** {
 1050              		.loc 1 278 0
 1051              		.cfi_startproc
 1052              		@ args = 0, pretend = 0, frame = 0
 1053              		@ frame_needed = 0, uses_anonymous_args = 0
 1054 0000 08B5     		push	{r3, lr}
 1055              		.cfi_def_cfa_offset 8
 1056              		.cfi_offset 3, -8
 1057              		.cfi_offset 14, -4
 279:XYPlotter.c   ****     //moveChessPiece(1,12);
 280:XYPlotter.c   ****     moveMotorY(-5);
 1058              		.loc 1 280 0
 1059 0002 0348     		ldr	r0, .L56
 1060 0004 FFF7FEFF 		bl	moveMotorY
 1061              	.LVL168:
 281:XYPlotter.c   ****     moveMotorY(5);
 1062              		.loc 1 281 0
 1063 0008 0248     		ldr	r0, .L56+4
 1064 000a FFF7FEFF 		bl	moveMotorY
 1065              	.LVL169:
 1066 000e 08BD     		pop	{r3, pc}
 1067              	.L57:
 1068              		.align	2
 1069              	.L56:
 1070 0010 0000A0C0 		.word	-1063256064
 1071 0014 0000A040 		.word	1084227584
 1072              		.cfi_endproc
 1073              	.LFE71:
 1074              		.size	XYPlotterTest, .-XYPlotterTest
 1075              		.section	.text.moveHome,"ax",%progbits
 1076              		.align	2
 1077              		.global	moveHome
 1078              		.thumb
 1079              		.thumb_func
 1080              		.type	moveHome, %function
 1081              	moveHome:
 1082              	.LFB72:
 282:XYPlotter.c   ****     
 283:XYPlotter.c   **** 
 284:XYPlotter.c   ****     //moveMotorX(1);
 285:XYPlotter.c   ****     //moveMotorX(-1);
 286:XYPlotter.c   ****     //motorTest(1,1,0,0);
 287:XYPlotter.c   ****     //motorTest(0,1,1,0);
 288:XYPlotter.c   ****     //motorTest(0,0,1,1);
 289:XYPlotter.c   ****     //motorTest(1,0,0,1);
 290:XYPlotter.c   **** }
 291:XYPlotter.c   **** 
 292:XYPlotter.c   **** void moveHome()
ARM GAS  C:\Users\Simon\AppData\Local\Temp\ccmwFnmI.s 			page 28


 293:XYPlotter.c   **** {
 1083              		.loc 1 293 0
 1084              		.cfi_startproc
 1085              		@ args = 0, pretend = 0, frame = 8
 1086              		@ frame_needed = 0, uses_anonymous_args = 0
 1087 0000 10B5     		push	{r4, lr}
 1088              		.cfi_def_cfa_offset 8
 1089              		.cfi_offset 4, -8
 1090              		.cfi_offset 14, -4
 1091 0002 82B0     		sub	sp, sp, #8
 1092              		.cfi_def_cfa_offset 16
 294:XYPlotter.c   ****     servoOff();
 1093              		.loc 1 294 0
 1094 0004 FFF7FEFF 		bl	servoOff
 1095              	.LVL170:
 295:XYPlotter.c   ****         // Udtryk for at rykke fra currentSquare til fromSquare
 296:XYPlotter.c   ****     struct stepDif moveToStart = calculateSquares(currentSquare, 0);
 1096              		.loc 1 296 0
 1097 0008 0B4C     		ldr	r4, .L60
 1098 000a 0022     		movs	r2, #0
 1099 000c 2178     		ldrb	r1, [r4]	@ zero_extendqisi2
 1100 000e 6846     		mov	r0, sp
 1101 0010 FFF7FEFF 		bl	calculateSquares
 1102              	.LVL171:
 297:XYPlotter.c   ****     
 298:XYPlotter.c   ****     // Ryk magnet til startposition
 299:XYPlotter.c   ****     moveMotorX(moveToStart.x);
 1103              		.loc 1 299 0
 1104 0014 0098     		ldr	r0, [sp]
 1105 0016 FFF7FEFF 		bl	__aeabi_i2f
 1106              	.LVL172:
 1107 001a FFF7FEFF 		bl	moveMotorX
 1108              	.LVL173:
 300:XYPlotter.c   ****     moveMotorY(moveToStart.y);
 1109              		.loc 1 300 0
 1110 001e 0198     		ldr	r0, [sp, #4]
 1111 0020 FFF7FEFF 		bl	__aeabi_i2f
 1112              	.LVL174:
 1113 0024 FFF7FEFF 		bl	moveMotorY
 1114              	.LVL175:
 301:XYPlotter.c   ****     
 302:XYPlotter.c   ****     //Opdater magnetens position
 303:XYPlotter.c   ****     currentSquare = 0;
 1115              		.loc 1 303 0
 1116 0028 0023     		movs	r3, #0
 1117 002a 2370     		strb	r3, [r4]
 304:XYPlotter.c   ****     CyDelay(500);
 1118              		.loc 1 304 0
 1119 002c 4FF4FA70 		mov	r0, #500
 1120 0030 FFF7FEFF 		bl	CyDelay
 1121              	.LVL176:
 305:XYPlotter.c   **** }
 1122              		.loc 1 305 0
 1123 0034 02B0     		add	sp, sp, #8
 1124              		.cfi_def_cfa_offset 8
 1125              		@ sp needed
 1126 0036 10BD     		pop	{r4, pc}
ARM GAS  C:\Users\Simon\AppData\Local\Temp\ccmwFnmI.s 			page 29


 1127              	.L61:
 1128              		.align	2
 1129              	.L60:
 1130 0038 00000000 		.word	currentSquare
 1131              		.cfi_endproc
 1132              	.LFE72:
 1133              		.size	moveHome, .-moveHome
 1134              		.comm	stepCase,1,1
 1135              		.comm	currentSquare,1,1
 1136              		.text
 1137              	.Letext0:
 1138              		.file 2 "c:\\program files (x86)\\cypress\\psoc creator\\4.4\\psoc creator\\import\\gnu\\arm\\5.4.
 1139              		.file 3 "c:\\program files (x86)\\cypress\\psoc creator\\4.4\\psoc creator\\import\\gnu\\arm\\5.4.
 1140              		.file 4 "XYPlotter.h"
 1141              		.file 5 "Generated_Source\\PSoC5/core_cm3.h"
 1142              		.file 6 "Generated_Source\\PSoC5/P2_3.h"
 1143              		.file 7 "Generated_Source\\PSoC5/P2_4.h"
 1144              		.file 8 "Generated_Source\\PSoC5/P2_5.h"
 1145              		.file 9 "Generated_Source\\PSoC5/P2_6.h"
 1146              		.file 10 "Generated_Source\\PSoC5/P3_3.h"
 1147              		.file 11 "Generated_Source\\PSoC5/P3_4.h"
 1148              		.file 12 "Generated_Source\\PSoC5/P3_5.h"
 1149              		.file 13 "Generated_Source\\PSoC5/P3_6.h"
 1150              		.file 14 "Generated_Source\\PSoC5/CyLib.h"
 1151              		.file 15 "Servo.h"